
electronic_engine_control.elf:     file format elf32-littlenios2
electronic_engine_control.elf
architecture: nios2, flags 0x00000112:
EXEC_P, HAS_SYMS, D_PAGED
start address 0x020001a0

Program Header:
    LOAD off    0x00001020 vaddr 0x04004020 paddr 0x02000000 align 2**12
         filesz 0x000001a0 memsz 0x000001a0 flags r-x
    LOAD off    0x000021a0 vaddr 0x020001a0 paddr 0x020001a0 align 2**12
         filesz 0x0001a8e0 memsz 0x0001a8e0 flags r-x
    LOAD off    0x0001ca80 vaddr 0x0201aa80 paddr 0x0201c5c0 align 2**12
         filesz 0x00001b40 memsz 0x00001b40 flags rw-
    LOAD off    0x0001f100 vaddr 0x0201e100 paddr 0x0201e100 align 2**12
         filesz 0x00000000 memsz 0x0000bbc4 flags rw-
    LOAD off    0x0001f000 vaddr 0x04004000 paddr 0x04004000 align 2**12
         filesz 0x00000020 memsz 0x00000020 flags r-x

Sections:
Idx Name          Size      VMA       LMA       File off  Algn
  0 .entry        00000020  04004000  04004000  0001f000  2**5
                  CONTENTS, ALLOC, LOAD, READONLY, CODE
  1 .exceptions   000001a0  04004020  02000000  00001020  2**2
                  CONTENTS, ALLOC, LOAD, READONLY, CODE
  2 .text         00019fb0  020001a0  020001a0  000021a0  2**3
                  CONTENTS, ALLOC, LOAD, READONLY, CODE
  3 .rodata       00000930  0201a150  0201a150  0001c150  2**2
                  CONTENTS, ALLOC, LOAD, READONLY, DATA
  4 .rwdata       00001b40  0201aa80  0201c5c0  0001ca80  2**2
                  CONTENTS, ALLOC, LOAD, DATA, SMALL_DATA
  5 .bss          0000bbc4  0201e100  0201e100  0001f100  2**2
                  ALLOC, SMALL_DATA
  6 .comment      00000026  00000000  00000000  0001f020  2**0
                  CONTENTS, READONLY
  7 .debug_aranges 000010f8  00000000  00000000  0001f048  2**3
                  CONTENTS, READONLY, DEBUGGING
  8 .debug_pubnames 00002e25  00000000  00000000  00020140  2**0
                  CONTENTS, READONLY, DEBUGGING
  9 .debug_info   0003bb86  00000000  00000000  00022f65  2**0
                  CONTENTS, READONLY, DEBUGGING
 10 .debug_abbrev 0000b28c  00000000  00000000  0005eaeb  2**0
                  CONTENTS, READONLY, DEBUGGING
 11 .debug_line   00021c7d  00000000  00000000  00069d77  2**0
                  CONTENTS, READONLY, DEBUGGING
 12 .debug_frame  000031c8  00000000  00000000  0008b9f4  2**2
                  CONTENTS, READONLY, DEBUGGING
 13 .debug_str    00002b49  00000000  00000000  0008ebbc  2**0
                  CONTENTS, READONLY, DEBUGGING
 14 .debug_loc    0000f87f  00000000  00000000  00091705  2**0
                  CONTENTS, READONLY, DEBUGGING
 15 .debug_alt_sim_info 00000010  00000000  00000000  000a0f84  2**2
                  CONTENTS, READONLY, DEBUGGING
 16 .debug_ranges 00000a48  00000000  00000000  000a0f98  2**3
                  CONTENTS, READONLY, DEBUGGING
 17 .thread_model 00000006  00000000  00000000  000a7836  2**0
                  CONTENTS, READONLY
 18 .cpu          00000007  00000000  00000000  000a783c  2**0
                  CONTENTS, READONLY
 19 .qsys         00000001  00000000  00000000  000a7843  2**0
                  CONTENTS, READONLY
 20 .simulation_enabled 00000001  00000000  00000000  000a7844  2**0
                  CONTENTS, READONLY
 21 .sysid_hash   00000004  00000000  00000000  000a7845  2**0
                  CONTENTS, READONLY
 22 .sysid_base   00000004  00000000  00000000  000a7849  2**0
                  CONTENTS, READONLY
 23 .sysid_time   00000004  00000000  00000000  000a784d  2**0
                  CONTENTS, READONLY
 24 .stderr_dev   0000000b  00000000  00000000  000a7851  2**0
                  CONTENTS, READONLY
 25 .stdin_dev    0000000b  00000000  00000000  000a785c  2**0
                  CONTENTS, READONLY
 26 .stdout_dev   0000000b  00000000  00000000  000a7867  2**0
                  CONTENTS, READONLY
 27 .sopc_system_name 0000000d  00000000  00000000  000a7872  2**0
                  CONTENTS, READONLY
 28 .quartus_project_dir 00000049  00000000  00000000  000a787f  2**0
                  CONTENTS, READONLY
 29 .jdi          00004d53  00000000  00000000  000a78c8  2**0
                  CONTENTS, READONLY
 30 .sopcinfo     0007df41  00000000  00000000  000ac61b  2**0
                  CONTENTS, READONLY
SYMBOL TABLE:
04004000 l    d  .entry	00000000 .entry
04004020 l    d  .exceptions	00000000 .exceptions
020001a0 l    d  .text	00000000 .text
0201a150 l    d  .rodata	00000000 .rodata
0201aa80 l    d  .rwdata	00000000 .rwdata
0201e100 l    d  .bss	00000000 .bss
00000000 l    d  .comment	00000000 .comment
00000000 l    d  .debug_aranges	00000000 .debug_aranges
00000000 l    d  .debug_pubnames	00000000 .debug_pubnames
00000000 l    d  .debug_info	00000000 .debug_info
00000000 l    d  .debug_abbrev	00000000 .debug_abbrev
00000000 l    d  .debug_line	00000000 .debug_line
00000000 l    d  .debug_frame	00000000 .debug_frame
00000000 l    d  .debug_str	00000000 .debug_str
00000000 l    d  .debug_loc	00000000 .debug_loc
00000000 l    d  .debug_alt_sim_info	00000000 .debug_alt_sim_info
00000000 l    d  .debug_ranges	00000000 .debug_ranges
020001d8 l       .text	00000000 alt_after_alt_main
00000000 l    df *ABS*	00000000 alt_irq_handler.c
00000000 l    df *ABS*	00000000 apps_task.c
0201e100 l     O .bss	00000002 last_apps_2_reading.3704
0201e102 l     O .bss	00000002 last_apps_1_reading.3703
00000000 l    df *ABS*	00000000 failure_handler_task.c
00000000 l    df *ABS*	00000000 main.c
00000000 l    df *ABS*	00000000 motor_control_task.c
00000000 l    df *ABS*	00000000 pwm_gen.c
00000000 l    df *ABS*	00000000 solenoid_task.c
0201e13c l     O .bss	00000004 data.3676
02001408 l     F .text	00000094 isr_btn
00000000 l    df *ABS*	00000000 CuTest.c
02001dd4 l     F .text	0000009c CuFailInternal
0201a434 l     O .rodata	0000000b __func__.3471
00000000 l    df *ABS*	00000000 testbench.c
00000000 l    df *ABS*	00000000 throttle_data.c
00000000 l    df *ABS*	00000000 util.c
00000000 l    df *ABS*	00000000 dp-bit.c
02003004 l     F .text	00000410 _fpadd_parts
00000000 l    df *ABS*	00000000 dp-bit.c
00000000 l    df *ABS*	00000000 dp-bit.c
00000000 l    df *ABS*	00000000 lib2-divmod.c
02003590 l     F .text	0000007c udivmodsi4
00000000 l    df *ABS*	00000000 lib2-mul.c
00000000 l    df *ABS*	00000000 dp-bit.c
00000000 l    df *ABS*	00000000 dp-bit.c
00000000 l    df *ABS*	00000000 dp-bit.c
00000000 l    df *ABS*	00000000 assert.c
00000000 l    df *ABS*	00000000 fiprintf.c
00000000 l    df *ABS*	00000000 impure.c
0201aa80 l     O .rwdata	00000400 impure_data
00000000 l    df *ABS*	00000000 malloc.c
00000000 l    df *ABS*	00000000 mallocr.c
00000000 l    df *ABS*	00000000 memcpy.c
00000000 l    df *ABS*	00000000 memmove.c
00000000 l    df *ABS*	00000000 memset.c
00000000 l    df *ABS*	00000000 printf.c
00000000 l    df *ABS*	00000000 puts.c
00000000 l    df *ABS*	00000000 realloc.c
00000000 l    df *ABS*	00000000 mallocr.c
00000000 l    df *ABS*	00000000 sbrkr.c
00000000 l    df *ABS*	00000000 sprintf.c
00000000 l    df *ABS*	00000000 strcat.c
00000000 l    df *ABS*	00000000 strcmp.c
00000000 l    df *ABS*	00000000 strcpy.c
00000000 l    df *ABS*	00000000 strlen.c
00000000 l    df *ABS*	00000000 vfiprintfr_1.c
00000000 l    df *ABS*	00000000 vfprintf.c
020051ec l     F .text	00000058 __sprint_r
0201a65e l     O .rodata	00000010 blanks.3452
0201a64e l     O .rodata	00000010 zeroes.3453
00000000 l    df *ABS*	00000000 wsetup.c
00000000 l    df *ABS*	00000000 abort.c
00000000 l    df *ABS*	00000000 dtoa.c
02007280 l     F .text	00000244 quorem
00000000 l    df *ABS*	00000000 fflush.c
00000000 l    df *ABS*	00000000 findfp.c
02008ca8 l     F .text	00000058 std
02008db4 l     F .text	00000008 __fp_lock
02008dbc l     F .text	00000008 __fp_unlock
00000000 l    df *ABS*	00000000 mallocr.c
00000000 l    df *ABS*	00000000 fvwrite.c
00000000 l    df *ABS*	00000000 fwalk.c
00000000 l    df *ABS*	00000000 int_errno.c
00000000 l    df *ABS*	00000000 locale.c
0201c518 l     O .rwdata	00000004 charset
0201a690 l     O .rodata	00000030 lconv
00000000 l    df *ABS*	00000000 makebuf.c
00000000 l    df *ABS*	00000000 memchr.c
00000000 l    df *ABS*	00000000 mprec.c
0201a7d8 l     O .rodata	0000000c p05.2458
00000000 l    df *ABS*	00000000 s_isinfd.c
00000000 l    df *ABS*	00000000 s_isnand.c
00000000 l    df *ABS*	00000000 signal.c
00000000 l    df *ABS*	00000000 signalr.c
00000000 l    df *ABS*	00000000 stdio.c
00000000 l    df *ABS*	00000000 vfprintf.c
0200b2cc l     F .text	00000058 __sprint_r
0201a7f4 l     O .rodata	00000010 blanks.3391
0201a7e4 l     O .rodata	00000010 zeroes.3392
00000000 l    df *ABS*	00000000 writer.c
00000000 l    df *ABS*	00000000 mallocr.c
00000000 l    df *ABS*	00000000 closer.c
00000000 l    df *ABS*	00000000 fclose.c
00000000 l    df *ABS*	00000000 fstatr.c
00000000 l    df *ABS*	00000000 isattyr.c
00000000 l    df *ABS*	00000000 lseekr.c
00000000 l    df *ABS*	00000000 readr.c
00000000 l    df *ABS*	00000000 libgcc2.c
00000000 l    df *ABS*	00000000 libgcc2.c
00000000 l    df *ABS*	00000000 dp-bit.c
00000000 l    df *ABS*	00000000 dp-bit.c
00000000 l    df *ABS*	00000000 dp-bit.c
00000000 l    df *ABS*	00000000 dp-bit.c
00000000 l    df *ABS*	00000000 dp-bit.c
00000000 l    df *ABS*	00000000 dp-bit.c
00000000 l    df *ABS*	00000000 dp-bit.c
00000000 l    df *ABS*	00000000 dp-bit.c
00000000 l    df *ABS*	00000000 dp-bit.c
00000000 l    df *ABS*	00000000 dp-bit.c
00000000 l    df *ABS*	00000000 libgcc2.c
00000000 l    df *ABS*	00000000 libgcc2.c
00000000 l    df *ABS*	00000000 libgcc2.c
00000000 l    df *ABS*	00000000 alt_alarm_start.c
00000000 l    df *ABS*	00000000 alt_close.c
0200e59c l     F .text	00000060 alt_get_errno
00000000 l    df *ABS*	00000000 alt_dev.c
0200e5fc l     F .text	0000002c alt_dev_null_write
00000000 l    df *ABS*	00000000 alt_errno.c
00000000 l    df *ABS*	00000000 alt_exit.c
0200e628 l     F .text	00000040 alt_sim_halt
00000000 l    df *ABS*	00000000 alt_fstat.c
0200e76c l     F .text	00000060 alt_get_errno
00000000 l    df *ABS*	00000000 alt_getpid.c
00000000 l    df *ABS*	00000000 alt_irq_register.c
00000000 l    df *ABS*	00000000 alt_irq_vars.c
00000000 l    df *ABS*	00000000 alt_isatty.c
0200ea70 l     F .text	00000060 alt_get_errno
00000000 l    df *ABS*	00000000 alt_kill.c
0200ec10 l     F .text	00000060 alt_get_errno
00000000 l    df *ABS*	00000000 alt_load.c
0200ecf0 l     F .text	0000006c alt_load_section
00000000 l    df *ABS*	00000000 alt_lseek.c
0200ee50 l     F .text	00000060 alt_get_errno
00000000 l    df *ABS*	00000000 alt_main.c
00000000 l    df *ABS*	00000000 alt_read.c
0200f09c l     F .text	00000060 alt_get_errno
00000000 l    df *ABS*	00000000 alt_release_fd.c
00000000 l    df *ABS*	00000000 alt_sbrk.c
0201c538 l     O .rwdata	00000004 heap_end
00000000 l    df *ABS*	00000000 alt_tick.c
00000000 l    df *ABS*	00000000 alt_write.c
0200f4fc l     F .text	00000060 alt_get_errno
00000000 l    df *ABS*	00000000 alt_env_lock.c
0201c544 l     O .rwdata	00000004 lockid
0201e194 l     O .bss	00000004 locks
00000000 l    df *ABS*	00000000 alt_malloc_lock.c
0201c548 l     O .rwdata	00000004 lockid
0201e19c l     O .bss	00000004 locks
00000000 l    df *ABS*	00000000 os_core.c
02010f34 l     F .text	00000044 OS_InitMisc
02010f78 l     F .text	0000006c OS_InitRdyList
020110dc l     F .text	000000e0 OS_InitTCBList
02010e58 l     F .text	000000dc OS_InitEventList
02010fe4 l     F .text	0000007c OS_InitTaskIdle
02011060 l     F .text	0000007c OS_InitTaskStat
02011350 l     F .text	00000070 OS_SchedNew
00000000 l    df *ABS*	00000000 os_dbg.c
00000000 l    df *ABS*	00000000 os_flag.c
02013270 l     F .text	00000110 OS_FlagTaskRdy
02012fc8 l     F .text	000001c4 OS_FlagBlock
00000000 l    df *ABS*	00000000 os_mem.c
00000000 l    df *ABS*	00000000 os_q.c
00000000 l    df *ABS*	00000000 os_sem.c
00000000 l    df *ABS*	00000000 os_task.c
00000000 l    df *ABS*	00000000 os_time.c
00000000 l    df *ABS*	00000000 alt_sys_init.c
0201b43c l     O .rwdata	0000106c jtag_uart_0
0201c4a8 l     O .rwdata	0000002c de0_nano_adc_0
0201c4d4 l     O .rwdata	0000002c rs232_0
02017bf8 l     F .text	00000038 alt_dev_reg
00000000 l    df *ABS*	00000000 altera_avalon_jtag_uart_fd.c
00000000 l    df *ABS*	00000000 altera_avalon_jtag_uart_init.c
02017ea8 l     F .text	000002c8 altera_avalon_jtag_uart_irq
02018170 l     F .text	00000114 altera_avalon_jtag_uart_timeout
00000000 l    df *ABS*	00000000 altera_avalon_jtag_uart_ioctl.c
00000000 l    df *ABS*	00000000 altera_avalon_jtag_uart_read.c
00000000 l    df *ABS*	00000000 altera_avalon_jtag_uart_write.c
00000000 l    df *ABS*	00000000 altera_avalon_timer_sc.c
02018988 l     F .text	00000074 alt_avalon_timer_sc_irq
00000000 l    df *ABS*	00000000 altera_avalon_timer_vars.c
00000000 l    df *ABS*	00000000 altera_up_avalon_de0_nano_adc.c
00000000 l    df *ABS*	00000000 altera_up_avalon_rs232.c
00000000 l    df *ABS*	00000000 alt_dcache_flush_all.c
00000000 l    df *ABS*	00000000 alt_dev_llist_insert.c
0201906c l     F .text	00000060 alt_get_errno
00000000 l    df *ABS*	00000000 alt_do_ctors.c
00000000 l    df *ABS*	00000000 alt_do_dtors.c
00000000 l    df *ABS*	00000000 alt_find_dev.c
00000000 l    df *ABS*	00000000 alt_icache_flush_all.c
00000000 l    df *ABS*	00000000 alt_io_redirect.c
02019244 l     F .text	000000d8 alt_open_fd
00000000 l    df *ABS*	00000000 alt_open.c
02019394 l     F .text	000000f8 alt_file_locked
02019618 l     F .text	00000060 alt_get_errno
00000000 l    df *ABS*	00000000 altera_nios2_qsys_irq.c
00000040 l       *ABS*	00000000 OSCtxSw_SWITCH_PC
00000000 l    df *ABS*	00000000 os_cpu_c.c
00000014 l       *ABS*	00000000 OSTCBNext_OFFSET
00000032 l       *ABS*	00000000 OSTCBPrio_OFFSET
00000000 l       *ABS*	00000000 OSTCBStkPtr_OFFSET
00000000 l    df *ABS*	00000000 alt_find_file.c
00000000 l    df *ABS*	00000000 alt_get_fd.c
00000000 l    df *ABS*	00000000 atexit.c
00000000 l    df *ABS*	00000000 exit.c
00000000 l    df *ABS*	00000000 memcmp.c
00000000 l    df *ABS*	00000000 __atexit.c
00000000 l    df *ABS*	00000000 __call_atexit.c
02019f98 l     F .text	00000004 register_fini
0201e140 g     O .bss	00000004 rpm_reached_flag
02004e70 g     F .text	00000000 longjmp
0201e144 g     O .bss	00000004 solenoid_external_failure_flag
0200a140 g     F .text	00000094 _mprec_log10
0201c596 g     O .rwdata	00000002 OSTaskNameSize
0200a22c g     F .text	00000088 __any_on
0200c750 g     F .text	00000070 _isatty_r
0201a7b0 g     O .rodata	00000028 __mprec_tinytens
0200eeb0 g     F .text	000000c8 alt_main
020050d0 g     F .text	0000008c strcpy
02004704 g     F .text	000000a0 _puts_r
02029a34 g     O .bss	00000100 alt_irq
0200c7c0 g     F .text	00000078 _lseek_r
02013b64 g     F .text	000000d4 OS_MemInit
020019dc g     F .text	00000054 CuStringResize
02004e38 g     F .text	00000000 setjmp
0201c5c0 g       *ABS*	00000000 __flash_rwdata_start
02017ac4 g     F .text	00000064 OSTimeSet
0200db98 g     F .text	00000088 __eqdf2
020023bc g     F .text	0000007c CuSuiteAddSuite
0200fab0 g     F .text	000006b4 OSEventPendMulti
02029cc4 g       *ABS*	00000000 __alt_heap_start
02019a78 g     F .text	00000020 OSTaskCreateHook
0200b10c g     F .text	00000074 _kill_r
0200468c g     F .text	00000044 printf
0201c56e g     O .rwdata	00000002 OSMboxEn
020101b8 g     F .text	0000007c OSIntEnter
0200b04c g     F .text	000000a0 _signal_r
02002924 g     F .text	00000070 CuGetSuite
0200b188 g     F .text	00000068 __sseek
02008d10 g     F .text	000000a4 __sinit
0201c57e g     O .rwdata	00000002 OSQEn
02009a1c g     F .text	00000084 _setlocale_r
02002258 g     F .text	0000003c CuSuiteNew
02008e10 g     F .text	0000009c __sfmoreglue
0200f76c g     F .text	000000d0 __malloc_unlock
020018c0 g     F .text	00000064 CuStringInit
02019ad4 g     F .text	0000001c OSTaskStatHook
02018e38 g     F .text	00000090 alt_up_rs232_read_fd
0201e1a4 g     O .bss	00000001 OSLockNesting
02002a0c g     F .text	0000006c Test_pwm_gen
0201c5bc g     O .rwdata	00000002 OSDataSize
0201e1a5 g     O .bss	00000001 OSRunning
0201e104 g     O .bss	00000004 failure_msg_q
0201e1f8 g     O .bss	00000004 altera_avalon_timer_ts_freq
02004514 g     F .text	000000e0 memmove
02019b0c g     F .text	0000001c OSInitHookBegin
0201e224 g     O .bss	00000080 motor_cmd_q_buf
0201c5b4 g     O .rwdata	00000002 OSTmrSize
02008e00 g     F .text	00000010 _cleanup
0200170c g     F .text	0000002c shift_up
0200a2b4 g     F .text	000000bc _Balloc
0201e1a8 g     O .bss	00000004 OSIdleCtr
02000d68 g     F .text	00000034 decrease_throttle
0200dca8 g     F .text	00000088 __gtdf2
020266a4 g     O .bss	000000b6 throttle_deg_tps_val_map
02019744 g       .text	00000000 OSStartTsk
00000000  w      *UND*	00000000 __errno
02011684 g     F .text	000002e0 OS_TCBInit
02001cd8 g     F .text	0000004c CuTestNew
04004000 g     F .entry	0000000c __reset
02018ac4 g     F .text	00000140 alt_up_de0_nano_adc_read
0201c5ba g     O .rwdata	00000002 OSTmrWheelTblSize
02000000 g       *ABS*	00000000 __flash_exceptions_start
0201c55a g     O .rwdata	00000002 OSEventSize
0201e1ac g     O .bss	00000001 OSPrioHighRdy
0200c6dc g     F .text	00000074 _fstat_r
02002d54 g     F .text	00000088 int32U_changed_by_threshold
02019a98 g     F .text	00000020 OSTaskDelHook
0201e168 g     O .bss	00000004 errno
02001f50 g     F .text	00000108 CuAssertStrEquals_LineMsg
02019724 g       .text	00000000 OSStartHighRdy
0201627c g     F .text	00000200 OSTaskCreateExt
02002208 g     F .text	00000050 CuSuiteInit
02012ae4 g     F .text	00000068 OSFlagPendGetFlagsRdy
0201c59a g     O .rwdata	00000002 OSTaskStatStkSize
02011af0 g     F .text	00000334 OSFlagAccept
020142a0 g     F .text	000000c8 OSQFlush
02013c38 g     F .text	00000154 OSQAccept
0201e184 g     O .bss	00000004 alt_argv
02024500 g       *ABS*	00000000 _gp
020263a4 g     O .bss	00000100 result_q_buf
020160a8 g     F .text	000001d4 OSTaskCreate
02015b34 g     F .text	00000574 OSTaskChangePrio
0201e1a0 g     O .bss	00000004 alt_heapsem
0200e7cc g     F .text	00000020 getpid
02011964 g     F .text	0000018c OSDebugInit
0201647c g     F .text	0000040c OSTaskDel
0201b2bc g     O .rwdata	00000180 alt_fd_list
02026810 g     O .bss	00000370 OSFlagTbl
0201e108 g     O .bss	00000004 apps_failure_resolved_flag
02010c34 g     F .text	000000b8 OS_EventTaskRemove
02000668 g     F .text	000000bc set_new_motor_position_by_tps
02019194 g     F .text	00000094 alt_find_dev
02004474 g     F .text	000000a0 memcpy
0201c584 g     O .rwdata	00000002 OSRdyTblSize
020020cc g     F .text	000000c8 CuAssertDblEquals_LineMsg
0200130c g     F .text	0000006c set_duty_cycle
02002194 g     F .text	00000074 CuAssertPtrEquals_LineMsg
02008df4 g     F .text	0000000c _cleanup_r
0200de40 g     F .text	000000f8 __floatsidf
0201931c g     F .text	00000078 alt_io_redirect
0200ddb8 g     F .text	00000088 __ltdf2
0201a150 g       *ABS*	00000000 __DTOR_END__
02018dc4 g     F .text	00000074 alt_up_rs232_read_data
020047a4 g     F .text	00000014 puts
0200f83c g     F .text	00000130 OSEventNameGet
0201c568 g     O .rwdata	00000002 OSFlagMax
0201e10c g     O .bss	00000004 expected_tps_value
0200a090 g     F .text	000000b0 __ratio
02010234 g     F .text	00000100 OSIntExit
0200c3e4 g     F .text	00000024 __vfiprintf_internal
0201c5a2 g     O .rwdata	00000002 OSTCBSize
0201e1ad g     O .bss	00000001 OSPrioCur
020183ec g     F .text	000002c0 altera_avalon_jtag_uart_read
02003d20 g     F .text	00000014 malloc
020046d0 g     F .text	00000034 _printf_r
04004000 g       *ABS*	00000000 __alt_mem_onchip_memory2_0
020036cc g     F .text	00000008 __udivsi3
0200e9ac g     F .text	000000c4 isatty
0200ae30 g     F .text	000000cc _raise_r
0201c588 g     O .rwdata	00000002 OSStkWidth
02003c28 g     F .text	00000064 __assert_func
0201a6c0 g     O .rodata	000000c8 __mprec_tens
0201c57c g     O .rwdata	00000002 OSPtrSize
020099f8 g     F .text	00000008 __locale_charset
0201c55c g     O .rwdata	00000002 OSEventTblSize
02019698 g       .text	00000000 OSCtxSw
02000274 g     F .text	000003d4 apps_task
0201e15c g     O .bss	00000004 __malloc_top_pad
02002ce4 g     F .text	00000070 get_new_rpm_needed
0201e12c g     O .bss	00000004 watchdog
0201e1b0 g     O .bss	00000004 OSTCBList
0200b108 g     F .text	00000004 _getpid_r
0201e178 g     O .bss	00000004 alt_fd_list_lock
0201c514 g     O .rwdata	00000004 __mb_cur_max
02009a00 g     F .text	0000000c _localeconv_r
020264a4 g     O .bss	00000100 request_q_buf
0200aa18 g     F .text	0000003c __i2b
020093dc g     F .text	0000049c __sfvwrite_r
0200af84 g     F .text	000000b4 __sigtramp_r
02026b80 g     O .bss	00000c30 OSMemTbl
0201e1b4 g     O .bss	00000001 OSTickStepState
02004dc8 g     F .text	00000070 _sbrk_r
02001c68 g     F .text	00000070 CuTestInit
020012c4 g     F .text	00000048 set_period
0201c580 g     O .rwdata	00000002 OSQMax
02002588 g     F .text	000001cc CuSuiteDetails
020277b0 g     O .bss	00000800 OSTaskStatStk
0201374c g     F .text	0000010c OSMemNameGet
0201e148 g     O .bss	00000004 solenoid_failure_resolved_flag
0201c560 g     O .rwdata	00000002 OSFlagEn
0200c838 g     F .text	00000078 _read_r
0201c5a6 g     O .rwdata	00000002 OSTimeTickHookEn
02013380 g     F .text	000000ac OS_FlagUnlink
02014804 g     F .text	00000180 OSQPost
0201b288 g     O .rwdata	0000000c __lc_ctype
02001284 g     F .text	00000040 disable_pwm_output
0201c52c g     O .rwdata	00000004 alt_max_fd
02018d2c g     F .text	00000050 alt_up_rs232_check_parity
02011210 g     F .text	0000006c OS_MemCopy
0201127c g     F .text	000000d4 OS_Sched
02003a28 g     F .text	00000138 __unpack_d
0200c5b8 g     F .text	00000110 _fclose_r
02013648 g     F .text	00000104 OSMemGet
02016bb0 g     F .text	000001c4 OSTaskNameSet
02008c74 g     F .text	00000034 fflush
0201e160 g     O .bss	00000004 __malloc_max_sbrked_mem
02001994 g     F .text	00000048 CuStringDelete
0201e1b8 g     O .bss	00000004 OSCtxSwCtr
02019af0 g     F .text	0000001c OSTimeTickHook
0200e7ec g     F .text	000001c0 alt_irq_register
0201c56a g     O .rwdata	00000002 OSFlagNameSize
02010cec g     F .text	00000104 OS_EventTaskRemoveMulti
02003494 g     F .text	00000074 __adddf3
02010ae0 g     F .text	00000154 OS_EventTaskWaitMulti
02009f70 g     F .text	00000120 __b2d
020007d8 g     F .text	00000020 get_motor_failure_flag
0201c582 g     O .rwdata	00000002 OSQSize
0200cf1c g     F .text	00000660 __umoddi3
0200ed5c g     F .text	000000f4 lseek
020153e0 g     F .text	0000027c OSSemPend
02001b28 g     F .text	0000002c CuStringAppendFormat
0201c508 g     O .rwdata	00000004 _global_impure_ptr
020047d4 g     F .text	000005f4 _realloc_r
0201c56c g     O .rwdata	00000002 OSLowestPrio
02002754 g     F .text	000000dc Test_int16U_changed_by_threshold
02029cc4 g       *ABS*	00000000 __bss_end
02019b60 g     F .text	00000020 OSTCBInitHook
0201c5b2 g     O .rwdata	00000002 OSTmrCfgTicksPerSec
0200f2c8 g     F .text	00000110 alt_tick
0201e2a4 g     O .bss	00002000 motor_control_task_stk
020265a4 g     O .bss	00000100 solenoid_buf
02000cfc g     F .text	00000038 post_new_request
0200c8b0 g     F .text	0000066c __udivdi3
0201c554 g     O .rwdata	00000002 OSEventEn
0201a788 g     O .rodata	00000028 __mprec_bigtens
0200aca0 g     F .text	00000120 __s2b
0201c5ae g     O .rwdata	00000002 OSTmrCfgNameSize
02007268 g     F .text	00000018 abort
02000838 g     F .text	0000002c signal_exit_shift_matching
0200e010 g     F .text	00000194 __floatunsidf
02000e0c g     F .text	00000094 tps_value_comp_callback
02009e90 g     F .text	00000060 __mcmp
02008ddc g     F .text	00000018 __fp_lock_all
02001a30 g     F .text	000000b4 CuStringAppend
0201e14c g     O .bss	00000004 alarm
0201e110 g     O .bss	00000004 motor_tps_failure_flag
0201318c g     F .text	000000e4 OS_FlagInit
0200f230 g     F .text	00000098 alt_alarm_stop
02002328 g     F .text	00000094 CuSuiteAdd
02002994 g     F .text	00000078 run_all_unit_tests
02000764 g     F .text	00000074 hitec_servo_demo
0201c590 g     O .rwdata	00000002 OSTaskIdleStkSize
0201e17c g     O .bss	00000004 alt_irq_active
02002438 g     F .text	00000098 CuSuiteRun
02014f6c g     F .text	000000c0 OSSemAccept
02013978 g     F .text	000000f0 OSMemPut
0201342c g     F .text	0000021c OSMemCreate
0201e1bc g     O .bss	00000004 OSIdleCtrMax
02000d34 g     F .text	00000034 increase_throttle
040040ec g     F .exceptions	000000d4 alt_irq_handler
0201b294 g     O .rwdata	00000028 alt_dev_null
0201c5a4 g     O .rwdata	00000002 OSTicksPerSec
02002a78 g     F .text	00000110 throttle_data_init
02001378 g     F .text	00000090 get_new_pwm_module
02019698 g       .text	00000000 OSIntCtxSw
020202a4 g     O .bss	00002000 failure_handler_task_stk
02002fa0 g     F .text	00000064 set_tps_sensor_output
02001d6c g     F .text	00000068 CuTestRun
02018f9c g     F .text	0000001c alt_dcache_flush_all
02009d5c g     F .text	00000070 __hi0bits
0200df38 g     F .text	000000d8 __fixdfsi
0201e1c0 g     O .bss	00000004 OSTCBFreeList
0201c5c0 g       *ABS*	00000000 __ram_rwdata_end
0201565c g     F .text	0000017c OSSemPendAbort
020024d0 g     F .text	000000b8 CuSuiteSummary
02000dd0 g     F .text	0000003c watchdog_callback
0201c524 g     O .rwdata	00000008 alt_dev_list
0202675a g     O .bss	000000b6 throttle_deg_apps_val_map
0200f3d8 g     F .text	00000124 write
0201c5a8 g     O .rwdata	00000002 OSVersionNbr
02001738 g     F .text	0000002c shift_down
0201aa80 g       *ABS*	00000000 __ram_rodata_end
0200e694 g     F .text	000000d8 fstat
02018ec8 g     F .text	00000094 alt_up_rs232_write_fd
0200ead0 g     F .text	00000140 kill
02002294 g     F .text	00000094 CuSuiteDelete
02003508 g     F .text	00000088 __ledf2
02004f84 g     F .text	00000090 strcat
0201c550 g     O .rwdata	00000004 OSEndiannessTest
0200ab80 g     F .text	00000120 __pow5mult
0201e16c g     O .bss	00000004 __nlocale_changed
0200b324 g     F .text	000010c0 ___vfiprintf_internal_r
020036d4 g     F .text	00000008 __umodsi3
0201c562 g     O .rwdata	00000002 OSFlagGrpSize
02029cc4 g       *ABS*	00000000 end
02017d78 g     F .text	00000130 altera_avalon_jtag_uart_init
020114f4 g     F .text	000000c8 OS_TaskStat
0201e150 g     O .bss	00000004 btn_input_q
02001924 g     F .text	00000070 CuStringNew
0201a14c g       *ABS*	00000000 __CTOR_LIST__
04000000 g       *ABS*	00000000 __alt_stack_pointer
020189fc g     F .text	00000088 alt_avalon_timer_sc_init
0200e2c8 g     F .text	00000080 __clzsi2
020186ac g     F .text	000002dc altera_avalon_jtag_uart_write
02001d24 g     F .text	00000048 CuTestDelete
02000c7c g     F .text	00000020 get_adc
02008d00 g     F .text	00000004 __sfp_lock_acquire
02009c50 g     F .text	000000e4 memchr
020111bc g     F .text	00000054 OS_MemClr
02005244 g     F .text	00001ec4 ___vfprintf_internal_r
02019768 g     F .text	00000310 OSTaskStkInit
02004f24 g     F .text	00000060 _sprintf_r
020090c8 g     F .text	00000314 _free_r
0201083c g     F .text	00000194 OS_EventTaskRdy
0201e154 g     O .bss	00000004 free_alarm_flag
02019f9c g     F .text	000001b0 __call_exitprocs
0201e1c4 g     O .bss	00000001 OSCPUUsage
0200186c g     F .text	00000054 CuStrCopy
0201e170 g     O .bss	00000004 __mlocale_changed
0201c510 g     O .rwdata	00000004 __malloc_sbrk_base
020001a0 g     F .text	0000003c _start
0201e18c g     O .bss	00000004 _alt_tick_rate
02014368 g     F .text	00000320 OSQPend
02000c9c g     F .text	00000040 disp_err
02017574 g     F .text	0000014c OSTimeDly
0200a678 g     F .text	0000014c __lshift
0201e190 g     O .bss	00000004 _alt_nticks
0200b0ec g     F .text	0000001c signal
0200ef78 g     F .text	00000124 read
02017b5c g     F .text	0000009c alt_sys_init
02000864 g     F .text	0000032c failure_handler_task
02019e64 g     F .text	00000134 __register_exitproc
0201e1c5 g     O .bss	00000001 OSTaskCtr
02000cdc g     F .text	00000020 get_failure_msg_q
0201e114 g     O .bss	00000004 apps_external_failure_flag
02018cec g     F .text	00000040 alt_up_rs232_get_available_space_in_write_FIFO
02002b88 g     F .text	0000015c get_tps_from_apps
020176c0 g     F .text	00000190 OSTimeDlyHMSM
0200a7c4 g     F .text	00000254 __multiply
02018284 g     F .text	00000074 altera_avalon_jtag_uart_close
020036dc g     F .text	00000038 __mulsi3
0201aa80 g       *ABS*	00000000 __ram_rwdata_start
0201e118 g     O .bss	00000004 adc
0201a150 g       *ABS*	00000000 __ram_rodata_start
0201e1fc g     O .bss	00000028 __malloc_current_mallinfo
0201c556 g     O .rwdata	00000002 OSEventMax
0200a370 g     F .text	0000017c __d2b
020157d8 g     F .text	00000128 OSSemPost
020103c0 g     F .text	000000e4 OSSchedUnlock
020047b8 g     F .text	0000001c realloc
02017c30 g     F .text	00000058 altera_avalon_jtag_uart_read_fd
02019ca0 g     F .text	00000104 alt_get_fd
0201e1c8 g     O .bss	00000004 OSMemFreeList
02010514 g     F .text	000000ac OSStatInit
02012ef4 g     F .text	000000d4 OSFlagQuery
02003b60 g     F .text	000000c8 __fpcmp_parts_d
0201c58c g     O .rwdata	00000002 OSTaskCreateExtEn
0200c548 g     F .text	00000070 _close_r
02019df0 g     F .text	00000074 memcmp
02010820 g     F .text	0000001c OS_Dummy
02017ce0 g     F .text	00000048 altera_avalon_jtag_uart_close_fd
02029cc4 g       *ABS*	00000000 __alt_stack_base
02017d28 g     F .text	00000050 altera_avalon_jtag_uart_ioctl_fd
0200712c g     F .text	0000013c __swsetup_r
02027fb0 g     O .bss	000001e0 OSQTbl
0200d940 g     F .text	00000258 __divdf3
02008eac g     F .text	000000f0 __sfp
0200a1d4 g     F .text	00000058 __copybits
0201ae80 g     O .rwdata	00000408 __malloc_av_
02008d0c g     F .text	00000004 __sinit_lock_release
02001834 g     F .text	00000038 CuStrAlloc
0201e1cc g     O .bss	00000004 OSTCBHighRdy
0200d57c g     F .text	000003c4 __muldf3
0200b26c g     F .text	00000060 __sread
0201e1d0 g     O .bss	00000004 OSQFreeList
02018c58 g     F .text	00000058 alt_up_rs232_disable_read_interrupt
02019b80 g     F .text	00000120 alt_find_file
02018fb8 g     F .text	000000b4 alt_dev_llist_insert
0200f664 g     F .text	00000108 __malloc_lock
0200f174 g     F .text	000000bc sbrk
020222a4 g     O .bss	00002000 apps_task_stk
0200f96c g     F .text	00000144 OSEventNameSet
02008a78 g     F .text	000001fc _fflush_r
0200c480 g     F .text	000000c8 _calloc_r
0201e1d4 g     O .bss	00000001 OSRdyGrp
02001e70 g     F .text	00000084 CuFail_Line
02001ae4 g     F .text	00000044 CuStringAppendChar
0201e100 g       *ABS*	00000000 __bss_start
020045f4 g     F .text	00000098 memset
02000b90 g     F .text	000000ec main
02001240 g     F .text	00000044 enable_pwm_output
0201e188 g     O .bss	00000004 alt_envp
0201e164 g     O .bss	00000004 __malloc_max_total_mem
02017c88 g     F .text	00000058 altera_avalon_jtag_uart_write_fd
020242a4 g     O .bss	00000100 failure_code_buf
0201a924 g     O .rodata	00000100 OSUnMapTbl
0201c586 g     O .rwdata	00000002 OSSemEn
0201e130 g     O .bss	00000004 request_q
0200149c g     F .text	00000270 solenoid_task
02012b4c g     F .text	000003a8 OSFlagPost
0200b180 g     F .text	00000008 __sclose
04000000 g       *ABS*	00000000 __alt_heap_limit
0200c6c8 g     F .text	00000014 fclose
020109d0 g     F .text	00000110 OS_EventTaskWait
020115bc g     F .text	000000c8 OS_TaskStatStkChk
02029b34 g     O .bss	00000190 _atexit0
02016888 g     F .text	00000170 OSTaskDelReq
020074c4 g     F .text	000015b4 _dtoa_r
02003d34 g     F .text	00000740 _malloc_r
0201c530 g     O .rwdata	00000004 alt_errno
020104a4 g     F .text	00000070 OSStart
02003ce4 g     F .text	00000028 _fiprintf_r
0200af74 g     F .text	00000010 _init_signal
0200f608 g     F .text	0000005c __env_unlock
02009940 g     F .text	000000b8 _fwalk
02016d74 g     F .text	00000218 OSTaskResume
02013a68 g     F .text	000000fc OSMemQuery
0201c598 g     O .rwdata	00000002 OSTaskStatEn
0201c572 g     O .rwdata	00000002 OSMemMax
02014984 g     F .text	00000188 OSQPostFront
0200360c g     F .text	00000060 __divsi3
0201e1d5 g     O .bss	00000003 OSRdyTbl
0201c54c g     O .rwdata	00000002 OSDebugEn
0201a594 g     O .rodata	00000014 __thenan_df
02008f9c g     F .text	0000012c _malloc_trim_r
0201a150 g       *ABS*	00000000 __CTOR_END__
0201e11c g     O .bss	00000004 apps_failure_flag
0201c564 g     O .rwdata	00000002 OSFlagNodeSize
0201c5ac g     O .rwdata	00000002 OSTmrCfgMax
02002058 g     F .text	00000074 CuAssertIntEquals_LineMsg
02005014 g     F .text	000000bc strcmp
02013d8c g     F .text	00000214 OSQCreate
020169f8 g     F .text	000001b8 OSTaskNameGet
0201a150 g       *ABS*	00000000 __flash_rodata_start
02014b0c g     F .text	00000234 OSQPostOpt
020105c0 g     F .text	00000240 OSTimeTick
0201c594 g     O .rwdata	00000002 OSTaskMax
02002ddc g     F .text	00000108 int32U_differ_by_percent
0201a150 g       *ABS*	00000000 __DTOR_LIST__
0201502c g     F .text	00000114 OSSemCreate
0201c5b8 g     O .rwdata	00000002 OSTmrWheelSize
02018f5c g     F .text	00000040 alt_up_rs232_open_dev
020007f8 g     F .text	00000020 get_apps_task_external_failure_flag
0200dc20 g     F .text	00000088 __nedf2
0201c58e g     O .rwdata	00000002 OSTaskDelEn
02015900 g     F .text	00000130 OSSemQuery
02013fa0 g     F .text	00000300 OSQDel
02014688 g     F .text	0000017c OSQPendAbort
02017b28 g     F .text	00000034 alt_irq_init
0200f0fc g     F .text	00000078 alt_release_fd
02004eb0 g     F .text	00000074 sprintf
0201a804 g     O .rodata	00000100 __clz_tab
0201e174 g     O .bss	00000004 _PathLocale
0201c501 g     O .rwdata	00000001 tps_failure_encountered
02019da4 g     F .text	00000014 atexit
0200c408 g     F .text	00000078 _write_r
02010334 g     F .text	0000008c OSSchedLock
02009aa0 g     F .text	0000001c setlocale
02011e24 g     F .text	0000013c OSFlagCreate
0201c504 g     O .rwdata	00000004 _impure_ptr
0201e180 g     O .bss	00000004 alt_argc
0201e1f4 g     O .bss	00000004 altera_avalon_timer_ts_base
02019130 g     F .text	00000064 _do_dtors
0201c55e g     O .rwdata	00000002 OSEventMultiEn
0201e128 g     O .bss	00000004 failure_code_q
02011f60 g     F .text	000002a8 OSFlagDel
02000000 g       *ABS*	00000000 __alt_mem_sdram_0
0201e1d8 g     O .bss	00000004 OSEventFreeList
04004020 g       .exceptions	00000000 alt_irq_entry
0201e120 g     O .bss	00000004 exit_shift_matching_flag
02009ef0 g     F .text	00000080 __ulp
0200adc0 g     F .text	00000040 __isinfd
020124a0 g     F .text	00000644 OSFlagPend
0201c5aa g     O .rwdata	00000002 OSTmrEn
02008dc4 g     F .text	00000018 __fp_unlock_all
0201c51c g     O .rwdata	00000008 alt_fs_list
020113c0 g     F .text	00000080 OS_StrCopy
02018c04 g     F .text	00000054 alt_up_rs232_enable_read_interrupt
02018d7c g     F .text	00000048 alt_up_rs232_write_data
02000724 g     F .text	00000040 set_new_motor_position
0201c574 g     O .rwdata	00000002 OSMemNameSize
02019b28 g     F .text	0000001c OSInitHookEnd
04004020 g       *ABS*	00000000 __ram_exceptions_start
0201c5a0 g     O .rwdata	00000002 OSTCBPrioTblMax
02009a0c g     F .text	00000010 localeconv
02000d9c g     F .text	00000034 hold_throttle
020001dc g     F .text	00000098 apps_value_comp_callback
0201c59c g     O .rwdata	00000002 OSTaskStatStkChkEn
0201c570 g     O .rwdata	00000002 OSMemEn
0201c57a g     O .rwdata	00000002 OSMutexEn
0201c5c0 g       *ABS*	00000000 _edata
02029cc4 g       *ABS*	00000000 _end
0201e1dc g     O .bss	00000001 OSIntNesting
040041c0 g       *ABS*	00000000 __ram_exceptions_end
020182f8 g     F .text	000000f4 altera_avalon_jtag_uart_ioctl
02017850 g     F .text	00000210 OSTimeDlyResume
020017c8 g     F .text	00000020 get_solenoid_task_external_failure_flag
02000ea0 g     F .text	000003a0 motor_control_task
0201234c g     F .text	00000154 OSFlagNameSet
02001808 g     F .text	0000002c signal_shift_start
02001b54 g     F .text	00000114 CuStringInsert
0201e158 g     O .bss	00000004 timer_active_flag
02016f8c g     F .text	000001fc OSTaskStkChk
0201c576 g     O .rwdata	00000002 OSMemSize
0200b1f0 g     F .text	0000007c __swrite
0201c50c g     O .rwdata	00000004 __malloc_trim_threshold
02019678 g     F .text	00000020 altera_nios2_qsys_irq_init
0201e1e0 g     O .bss	00000004 OSTCBCur
02019db8 g     F .text	00000038 exit
02003ca0 g     F .text	00000044 fiprintf
020051d0 g     F .text	0000001c _vfiprintf_r
0201c578 g     O .rwdata	00000002 OSMemTblSize
02009878 g     F .text	000000c8 _fwalk_reent
0200a4ec g     F .text	0000018c __mdiff
0200366c g     F .text	00000060 __modsi3
04000000 g       *ABS*	00000000 __alt_data_end
04004020 g     F .exceptions	00000000 alt_exception
02008d04 g     F .text	00000004 __sfp_lock_release
02010164 g     F .text	00000054 OSInit
020173b4 g     F .text	00000144 OSTaskQuery
02014ec0 g     F .text	000000ac OS_QInit
02011440 g     F .text	00000058 OS_StrLen
0201e134 g     O .bss	00000004 tps_check_alarm
02013858 g     F .text	00000120 OSMemNameSet
02018a84 g     F .text	00000040 alt_up_de0_nano_adc_open_dev
0201e138 g     O .bss	00000004 req_result_q
0201c592 g     O .rwdata	00000002 OSTaskProfileEn
020243a4 g     O .bss	00002000 solenoid_task_stk
0201e1e4 g     O .bss	00000004 OSTime
02001764 g     F .text	00000064 solenoid_callback
02028190 g     O .bss	00000800 OSTaskIdleStk
0200e668 g     F .text	0000002c _exit
0200ae00 g     F .text	00000030 __isnand
020017e8 g     F .text	00000020 get_solenoid_task_failure_resolved_flag
02012208 g     F .text	00000144 OSFlagNameGet
0200e348 g     F .text	00000154 alt_alarm_start
02017a60 g     F .text	00000064 OSTimeGet
02002f58 g     F .text	00000048 get_tps_sensor_output_pwm
0200e1a4 g     F .text	00000124 __muldi3
02009abc g     F .text	00000194 __smakebuf_r
02000818 g     F .text	00000020 get_apps_task_failure_resolved_flag
0200515c g     F .text	00000074 strlen
0200af10 g     F .text	00000064 _init_signal_r
02019ab8 g     F .text	0000001c OSTaskSwHook
0201948c g     F .text	0000018c open
02028990 g     O .bss	00000b40 OSEventTbl
02001ef4 g     F .text	0000005c CuAssert_Line
0200dd30 g     F .text	00000088 __gedf2
020294d0 g     O .bss	00000510 OSTCBTbl
02015a30 g     F .text	00000104 OSSemSet
02003c8c g     F .text	00000014 __assert
02019228 g     F .text	0000001c alt_icache_flush_all
0201c534 g     O .rwdata	00000004 alt_priority_mask
02015140 g     F .text	000002a0 OSSemDel
0201e1e8 g     O .bss	00000004 OSFlagFreeList
0201c558 g     O .rwdata	00000002 OSEventNameSize
02007108 g     F .text	00000024 __vfprintf_internal
0201e1ec g     O .bss	00000001 OSStatRdy
020299e0 g     O .bss	00000054 OSTCBPrioTbl
0200f55c g     F .text	000000ac __env_lock
0201c59e g     O .rwdata	00000002 OSTaskSwHookEn
02002830 g     F .text	000000f4 Test_int16U_differ_by_percent
02003414 g     F .text	00000080 __subdf3
0201e124 g     O .bss	00000004 motor_cmd_q
0201c500 g     O .rwdata	00000001 timeout_failure_encountered
02002ee4 g     F .text	00000074 get_gear_ratio
02009dcc g     F .text	000000c4 __lo0bits
0201c53c g     O .rwdata	00000008 alt_alarm_list
0201c566 g     O .rwdata	00000002 OSFlagWidth
020190cc g     F .text	00000064 _do_ctors
0200b038 g     F .text	00000014 __sigtramp
02018cb0 g     F .text	0000003c alt_up_rs232_get_used_space_in_read_FIFO
0200e49c g     F .text	00000100 close
0201e198 g     O .bss	00000004 alt_envsem
0201e1f0 g     O .bss	00000004 OSIdleCtrRun
02010800 g     F .text	00000020 OSVersion
0201c5b0 g     O .rwdata	00000002 OSTmrCfgWheelSize
0200ec70 g     F .text	00000080 alt_load
020174f8 g     F .text	0000007c OS_TaskStkClr
02003714 g     F .text	00000314 __pack_d
0201c58a g     O .rwdata	00000002 OSTaskCreateEn
02010df0 g     F .text	00000068 OS_EventWaitListInit
0200aefc g     F .text	00000014 raise
02019b44 g     F .text	0000001c OSTaskIdleHook
02003d0c g     F .text	00000014 free
02008d08 g     F .text	00000004 __sinit_lock_acquire
0200aa54 g     F .text	0000012c __multadd
02017188 g     F .text	0000022c OSTaskSuspend
02009d34 g     F .text	00000028 _Bfree
02011498 g     F .text	0000005c OS_TaskIdle
02000648 g     F .text	00000020 get_motor_cmd_q
0201c5b6 g     O .rwdata	00000002 OSTmrTblSize
02014d40 g     F .text	00000180 OSQQuery



Disassembly of section .entry:

04004000 <__reset>:
 * Jump to the _start entry point in the .text section if reset code
 * is allowed or if optimizing for RTL simulation.
 */
#if defined(ALT_ALLOW_CODE_AT_RESET) || defined(ALT_SIM_OPTIMIZE)
    /* Jump to the _start entry point in the .text section. */
    movhi r1, %hi(_start)
 4004000:	00408034 	movhi	at,512
    ori r1, r1, %lo(_start)
 4004004:	08406814 	ori	at,at,416
    jmp r1
 4004008:	0800683a 	jmp	at
	...

Disassembly of section .exceptions:

04004020 <alt_exception>:
         * Process an exception.  For all exceptions we must preserve all
         * caller saved registers on the stack (See the Nios2 ABI
         * documentation for details).
         */

        addi  sp, sp, -76
 4004020:	deffed04 	addi	sp,sp,-76

#endif

#endif

        stw   ra,  0(sp)
 4004024:	dfc00015 	stw	ra,0(sp)
        /*
         * Leave a gap in the stack frame at 4(sp) for the muldiv handler to
         * store zero into.
         */

        stw   r1,   8(sp)
 4004028:	d8400215 	stw	at,8(sp)
        stw   r2,  12(sp)
 400402c:	d8800315 	stw	r2,12(sp)
        stw   r3,  16(sp)
 4004030:	d8c00415 	stw	r3,16(sp)
        stw   r4,  20(sp)
 4004034:	d9000515 	stw	r4,20(sp)
        stw   r5,  24(sp)
 4004038:	d9400615 	stw	r5,24(sp)
        stw   r6,  28(sp)
 400403c:	d9800715 	stw	r6,28(sp)
        stw   r7,  32(sp)
 4004040:	d9c00815 	stw	r7,32(sp)

        rdctl r5, estatus
 4004044:	000b307a 	rdctl	r5,estatus

        stw   r8,  36(sp)
 4004048:	da000915 	stw	r8,36(sp)
        stw   r9,  40(sp)
 400404c:	da400a15 	stw	r9,40(sp)
        stw   r10, 44(sp)
 4004050:	da800b15 	stw	r10,44(sp)
        stw   r11, 48(sp)
 4004054:	dac00c15 	stw	r11,48(sp)
        stw   r12, 52(sp)
 4004058:	db000d15 	stw	r12,52(sp)
        stw   r13, 56(sp)
 400405c:	db400e15 	stw	r13,56(sp)
        stw   r14, 60(sp)
 4004060:	db800f15 	stw	r14,60(sp)
        stw   r15, 64(sp)
 4004064:	dbc01015 	stw	r15,64(sp)
        /*
         * ea-4 contains the address of the instruction being executed
         * when the exception occured. For interrupt exceptions, we will
         * will be re-issue the isntruction. Store it in 72(sp)
         */
        stw   r5,  68(sp)  /* estatus */
 4004068:	d9401115 	stw	r5,68(sp)
        addi  r15, ea, -4  /* instruction that caused exception */
 400406c:	ebffff04 	addi	r15,ea,-4
        stw   r15,  72(sp)
 4004070:	dbc01215 	stw	r15,72(sp)
#else
        /*
         * Test to see if the exception was a software exception or caused 
         * by an external interrupt, and vector accordingly.
         */
        rdctl r4, ipending
 4004074:	0009313a 	rdctl	r4,ipending
        andi  r2, r5, 1
 4004078:	2880004c 	andi	r2,r5,1
        beq   r2, zero, .Lnot_irq
 400407c:	10000326 	beq	r2,zero,400408c <alt_exception+0x6c>
        beq   r4, zero, .Lnot_irq
 4004080:	20000226 	beq	r4,zero,400408c <alt_exception+0x6c>
        /*
         * Now that all necessary registers have been preserved, call 
         * alt_irq_handler() to process the interrupts.
         */

        call alt_irq_handler
 4004084:	40040ec0 	call	40040ec <alt_irq_handler>

        .section .exceptions.irqreturn, "xa"

        br    .Lexception_exit
 4004088:	00000306 	br	4004098 <alt_exception+0x78>
         * upon completion, so we write ea (address of instruction *after*
         * the one where the exception occured) into 72(sp). The actual
         * instruction that caused the exception is written in r2, which these
         * handlers will utilize.
         */
        stw   ea,  72(sp)  /* Don't re-issue */
 400408c:	df401215 	stw	ea,72(sp)
        ldw   r2, -4(ea)   /* Instruction that caused exception */
 4004090:	e8bfff17 	ldw	r2,-4(ea)
#ifdef NIOS2_HAS_DEBUG_STUB
       /*
        *  Either tell the user now (if there is a debugger attached) or go into
        *  the debug monitor which will loop until a debugger is attached.
        */
        break
 4004094:	003da03a 	break	0
        /* 
         * Restore the saved registers, so that all general purpose registers 
         * have been restored to their state at the time the interrupt occured.
         */

        ldw   r5,  68(sp)
 4004098:	d9401117 	ldw	r5,68(sp)
        ldw   ea,  72(sp)  /* This becomes the PC once eret is executed */
 400409c:	df401217 	ldw	ea,72(sp)
        ldw   ra,   0(sp)
 40040a0:	dfc00017 	ldw	ra,0(sp)

        wrctl estatus, r5
 40040a4:	2801707a 	wrctl	estatus,r5

        ldw   r1,   8(sp)
 40040a8:	d8400217 	ldw	at,8(sp)
        ldw   r2,  12(sp)
 40040ac:	d8800317 	ldw	r2,12(sp)
        ldw   r3,  16(sp)
 40040b0:	d8c00417 	ldw	r3,16(sp)
        ldw   r4,  20(sp)
 40040b4:	d9000517 	ldw	r4,20(sp)
        ldw   r5,  24(sp)
 40040b8:	d9400617 	ldw	r5,24(sp)
        ldw   r6,  28(sp)
 40040bc:	d9800717 	ldw	r6,28(sp)
        ldw   r7,  32(sp)
 40040c0:	d9c00817 	ldw	r7,32(sp)
#ifdef ALT_STACK_CHECK
        ldw   et, %gprel(alt_exception_old_stack_limit)(gp)
#endif
#endif

        ldw   r8,  36(sp)
 40040c4:	da000917 	ldw	r8,36(sp)
        ldw   r9,  40(sp)
 40040c8:	da400a17 	ldw	r9,40(sp)
        ldw   r10, 44(sp)
 40040cc:	da800b17 	ldw	r10,44(sp)
        ldw   r11, 48(sp)
 40040d0:	dac00c17 	ldw	r11,48(sp)
        ldw   r12, 52(sp)
 40040d4:	db000d17 	ldw	r12,52(sp)
        ldw   r13, 56(sp)
 40040d8:	db400e17 	ldw	r13,56(sp)
        ldw   r14, 60(sp)
 40040dc:	db800f17 	ldw	r14,60(sp)
        ldw   r15, 64(sp)
 40040e0:	dbc01017 	ldw	r15,64(sp)
#endif

        ldw   sp,  76(sp)

#else
        addi  sp, sp, 76
 40040e4:	dec01304 	addi	sp,sp,76

        /*
         * Return to the interrupted instruction.
         */

        eret
 40040e8:	ef80083a 	eret

040040ec <alt_irq_handler>:
 * instruction is present if the macro ALT_CI_INTERRUPT_VECTOR defined.
 */

void alt_irq_handler (void) __attribute__ ((section (".exceptions")));
void alt_irq_handler (void)
{
 40040ec:	defff904 	addi	sp,sp,-28
 40040f0:	dfc00615 	stw	ra,24(sp)
 40040f4:	df000515 	stw	fp,20(sp)
 40040f8:	df000504 	addi	fp,sp,20
  
  /*
   * Notify the operating system that we are at interrupt level.
   */ 
  
  ALT_OS_INT_ENTER();
 40040fc:	20101b80 	call	20101b8 <OSIntEnter>
#ifndef NIOS2_EIC_PRESENT
static ALT_INLINE alt_u32 ALT_ALWAYS_INLINE alt_irq_pending (void)
{
  alt_u32 active;

  NIOS2_READ_IPENDING (active);
 4004100:	0005313a 	rdctl	r2,ipending
 4004104:	e0bffc15 	stw	r2,-16(fp)

  return active;
 4004108:	e0bffc17 	ldw	r2,-16(fp)
   * Consider the case where the high priority interupt is asserted during
   * the interrupt entry sequence for a lower priority interrupt to see why
   * this is the case.
   */

  active = alt_irq_pending ();
 400410c:	e0bfff15 	stw	r2,-4(fp)

  do
  {
    i = 0;
 4004110:	e03ffd15 	stw	zero,-12(fp)
    mask = 1;
 4004114:	00800044 	movi	r2,1
 4004118:	e0bffe15 	stw	r2,-8(fp)
     * called to clear the interrupt condition.
     */

    do
    {
      if (active & mask)
 400411c:	e0ffff17 	ldw	r3,-4(fp)
 4004120:	e0bffe17 	ldw	r2,-8(fp)
 4004124:	1884703a 	and	r2,r3,r2
 4004128:	1005003a 	cmpeq	r2,r2,zero
 400412c:	1000171e 	bne	r2,zero,400418c <alt_irq_handler+0xa0>
      { 
#ifdef ALT_ENHANCED_INTERRUPT_API_PRESENT
        alt_irq[i].handler(alt_irq[i].context); 
#else
        alt_irq[i].handler(alt_irq[i].context, i); 
 4004130:	e0bffd17 	ldw	r2,-12(fp)
 4004134:	00c080f4 	movhi	r3,515
 4004138:	18e68d04 	addi	r3,r3,-26060
 400413c:	100490fa 	slli	r2,r2,3
 4004140:	10c5883a 	add	r2,r2,r3
 4004144:	11800017 	ldw	r6,0(r2)
 4004148:	e0bffd17 	ldw	r2,-12(fp)
 400414c:	00c080f4 	movhi	r3,515
 4004150:	18e68d04 	addi	r3,r3,-26060
 4004154:	100490fa 	slli	r2,r2,3
 4004158:	10c5883a 	add	r2,r2,r3
 400415c:	10800104 	addi	r2,r2,4
 4004160:	11000017 	ldw	r4,0(r2)
 4004164:	e17ffd17 	ldw	r5,-12(fp)
 4004168:	303ee83a 	callr	r6
#ifndef NIOS2_EIC_PRESENT
static ALT_INLINE alt_u32 ALT_ALWAYS_INLINE alt_irq_pending (void)
{
  alt_u32 active;

  NIOS2_READ_IPENDING (active);
 400416c:	0005313a 	rdctl	r2,ipending
 4004170:	e0bffb15 	stw	r2,-20(fp)

  return active;
 4004174:	e0bffb17 	ldw	r2,-20(fp)
      mask <<= 1;
      i++;

    } while (1);

    active = alt_irq_pending ();
 4004178:	e0bfff15 	stw	r2,-4(fp)
    
  } while (active);
 400417c:	e0bfff17 	ldw	r2,-4(fp)
 4004180:	1004c03a 	cmpne	r2,r2,zero
 4004184:	103fe21e 	bne	r2,zero,4004110 <alt_irq_handler+0x24>
 4004188:	00000706 	br	40041a8 <alt_irq_handler+0xbc>
#else
        alt_irq[i].handler(alt_irq[i].context, i); 
#endif
        break;
      }
      mask <<= 1;
 400418c:	e0bffe17 	ldw	r2,-8(fp)
 4004190:	1085883a 	add	r2,r2,r2
 4004194:	e0bffe15 	stw	r2,-8(fp)
      i++;
 4004198:	e0bffd17 	ldw	r2,-12(fp)
 400419c:	10800044 	addi	r2,r2,1
 40041a0:	e0bffd15 	stw	r2,-12(fp)

    } while (1);
 40041a4:	003fdd06 	br	400411c <alt_irq_handler+0x30>

  /*
   * Notify the operating system that interrupt processing is complete.
   */ 

  ALT_OS_INT_EXIT();
 40041a8:	20102340 	call	2010234 <OSIntExit>
}
 40041ac:	e037883a 	mov	sp,fp
 40041b0:	dfc00117 	ldw	ra,4(sp)
 40041b4:	df000017 	ldw	fp,0(sp)
 40041b8:	dec00204 	addi	sp,sp,8
 40041bc:	f800283a 	ret

Disassembly of section .text:

020001a0 <_start>:
#if (NIOS2_NUM_OF_SHADOW_REG_SETS == 0)    
    /*
     * Now that the caches are initialized, set up the stack pointer.
     * The value provided by the linker is assumed to be correctly aligned.
     */
    movhi sp, %hi(__alt_stack_pointer)
 20001a0:	06c10034 	movhi	sp,1024
    ori sp, sp, %lo(__alt_stack_pointer)
 20001a4:	dec00014 	ori	sp,sp,0

    /* Set up the global pointer. */
    movhi gp, %hi(_gp)
 20001a8:	068080b4 	movhi	gp,514
    ori gp, gp, %lo(_gp)
 20001ac:	d6914014 	ori	gp,gp,17664
 */
#ifndef ALT_SIM_OPTIMIZE
    /* Log that the BSS is about to be cleared. */
    ALT_LOG_PUTS(alt_log_msg_bss)

    movhi r2, %hi(__bss_start)
 20001b0:	00808074 	movhi	r2,513
    ori r2, r2, %lo(__bss_start)
 20001b4:	10b84014 	ori	r2,r2,57600

    movhi r3, %hi(__bss_end)
 20001b8:	00c080b4 	movhi	r3,514
    ori r3, r3, %lo(__bss_end)
 20001bc:	18e73114 	ori	r3,r3,40132

    beq r2, r3, 1f
 20001c0:	10c00326 	beq	r2,r3,20001d0 <_start+0x30>

0:
    stw zero, (r2)
 20001c4:	10000015 	stw	zero,0(r2)
    addi r2, r2, 4
 20001c8:	10800104 	addi	r2,r2,4
    bltu r2, r3, 0b
 20001cc:	10fffd36 	bltu	r2,r3,20001c4 <_start+0x24>
     * section aren't defined until alt_load() has been called).
     */
    mov   et, zero
#endif

    call alt_load
 20001d0:	200ec700 	call	200ec70 <alt_load>

    /* Log that alt_main is about to be called. */
    ALT_LOG_PUTS(alt_log_msg_alt_main)

    /* Call the C entry point. It should never return. */
    call alt_main
 20001d4:	200eeb00 	call	200eeb0 <alt_main>

020001d8 <alt_after_alt_main>:

    /* Wait in infinite loop in case alt_main does return. */
alt_after_alt_main:
    br alt_after_alt_main
 20001d8:	003fff06 	br	20001d8 <alt_after_alt_main>

020001dc <apps_value_comp_callback>:

//<TODO>Get rid of global if possible
INT16U *expected_tps_value;

/* Callback function after 100 ms position sensor comparison timeout */
alt_u32 apps_value_comp_callback(void* context){
 20001dc:	defffc04 	addi	sp,sp,-16
 20001e0:	dfc00315 	stw	ra,12(sp)
 20001e4:	df000215 	stw	fp,8(sp)
 20001e8:	df000204 	addi	fp,sp,8
 20001ec:	e13fff15 	stw	r4,-4(fp)
	alt_up_de0_nano_adc_update(adc);
 20001f0:	d0a70617 	ldw	r2,-25576(gp)
 20001f4:	10800a17 	ldw	r2,40(r2)
 20001f8:	10000035 	stwio	zero,0(r2)
	INT16U apps_1_reading = alt_up_de0_nano_adc_read(adc,
			APPS_1_ADC_CHANNEL);
 20001fc:	d1270617 	ldw	r4,-25576(gp)
 2000200:	000b883a 	mov	r5,zero
 2000204:	2018ac40 	call	2018ac4 <alt_up_de0_nano_adc_read>
 2000208:	e0bffe8d 	sth	r2,-6(fp)
	INT16U apps_2_reading = alt_up_de0_nano_adc_read(adc,
			APPS_2_ADC_CHANNEL);
 200020c:	d1270617 	ldw	r4,-25576(gp)
 2000210:	01400044 	movi	r5,1
 2000214:	2018ac40 	call	2018ac4 <alt_up_de0_nano_adc_read>
 2000218:	e0bffe0d 	sth	r2,-8(fp)

	if (APPS_VALUE_MISMATCH(apps_1_reading, apps_2_reading)) {
 200021c:	e13ffe8b 	ldhu	r4,-6(fp)
 2000220:	e17ffe0b 	ldhu	r5,-8(fp)
 2000224:	01802d04 	movi	r6,180
 2000228:	01c003f4 	movhi	r7,15
 200022c:	39d09004 	addi	r7,r7,16960
 2000230:	2002ddc0 	call	2002ddc <int32U_differ_by_percent>
 2000234:	10803fcc 	andi	r2,r2,255
 2000238:	1005003a 	cmpeq	r2,r2,zero
 200023c:	1000051e 	bne	r2,zero,2000254 <apps_value_comp_callback+0x78>
		OSSemPost(apps_failure_flag);
 2000240:	d1270717 	ldw	r4,-25572(gp)
 2000244:	20157d80 	call	20157d8 <OSSemPost>
		OSQPost(failure_msg_q, (void*) ERR_APPS_READING_MISMATCH);
 2000248:	d1270117 	ldw	r4,-25596(gp)
 200024c:	01400084 	movi	r5,2
 2000250:	20148040 	call	2014804 <OSQPost>
	}
	free((alt_alarm*) context);
 2000254:	e13fff17 	ldw	r4,-4(fp)
 2000258:	2003d0c0 	call	2003d0c <free>
	return 0;
 200025c:	0005883a 	mov	r2,zero
}
 2000260:	e037883a 	mov	sp,fp
 2000264:	dfc00117 	ldw	ra,4(sp)
 2000268:	df000017 	ldw	fp,0(sp)
 200026c:	dec00204 	addi	sp,sp,8
 2000270:	f800283a 	ret

02000274 <apps_task>:

/*  Task routine for pedal position sensor and motor */
void apps_task(void* pdata) {
 2000274:	defff604 	addi	sp,sp,-40
 2000278:	dfc00915 	stw	ra,36(sp)
 200027c:	df000815 	stw	fp,32(sp)
 2000280:	df000804 	addi	fp,sp,32
 2000284:	e13fff15 	stw	r4,-4(fp)

	adc = get_adc();
 2000288:	2000c7c0 	call	2000c7c <get_adc>
 200028c:	d0a70615 	stw	r2,-25576(gp)
	INT8U err;
	BOOL apps_check_timer_activated = FALSE;
 2000290:	e03ffe05 	stb	zero,-8(fp)

	failure_msg_q = get_failure_msg_q();
 2000294:	2000cdc0 	call	2000cdc <get_failure_msg_q>
 2000298:	d0a70115 	stw	r2,-25596(gp)

	apps_failure_flag = OSSemCreate(SEM_FLAG_NO_ERROR);
 200029c:	0009883a 	mov	r4,zero
 20002a0:	201502c0 	call	201502c <OSSemCreate>
 20002a4:	d0a70715 	stw	r2,-25572(gp)
	motor_tps_failure_flag = OSSemCreate(SEM_FLAG_NO_ERROR);
 20002a8:	0009883a 	mov	r4,zero
 20002ac:	201502c0 	call	201502c <OSSemCreate>
 20002b0:	d0a70415 	stw	r2,-25584(gp)
	apps_external_failure_flag = OSSemCreate(SEM_FLAG_NO_ERROR);
 20002b4:	0009883a 	mov	r4,zero
 20002b8:	201502c0 	call	201502c <OSSemCreate>
 20002bc:	d0a70515 	stw	r2,-25580(gp)
	apps_failure_resolved_flag = OSSemCreate(SEM_FLAG_ERROR_UNRESOLVED);
 20002c0:	0009883a 	mov	r4,zero
 20002c4:	201502c0 	call	201502c <OSSemCreate>
 20002c8:	d0a70215 	stw	r2,-25592(gp)
	exit_shift_matching_flag = OSSemCreate(SHIFT_MATCHING_IN_PROGRESS);
 20002cc:	0009883a 	mov	r4,zero
 20002d0:	201502c0 	call	201502c <OSSemCreate>
 20002d4:	d0a70815 	stw	r2,-25568(gp)

	INT32U target_RPM = 0;
 20002d8:	e03ffd15 	stw	zero,-12(fp)
	BOOL slip_control_mode = FALSE;
 20002dc:	e03ffc45 	stb	zero,-15(fp)
	BOOL shift_matching_mode = FALSE;
 20002e0:	e03ffc05 	stb	zero,-16(fp)

	static INT16U last_apps_1_reading = 0;
	static INT16U last_apps_2_reading = 0;

	motor_cmd_q = OSQCreate((void*) motor_cmd_q_buf,
 20002e4:	010080b4 	movhi	r4,514
 20002e8:	21388904 	addi	r4,r4,-7644
 20002ec:	01401004 	movi	r5,64
 20002f0:	2013d8c0 	call	2013d8c <OSQCreate>
 20002f4:	d0a70915 	stw	r2,-25564(gp)
			MOTOR_CMD_Q_SIZE_ELEMENTS);

	if (motor_cmd_q == NULL) {
 20002f8:	d0a70917 	ldw	r2,-25564(gp)
 20002fc:	1004c03a 	cmpne	r2,r2,zero
 2000300:	1000041e 	bne	r2,zero,2000314 <apps_task+0xa0>
		printf("failed to init q\n");
 2000304:	010080b4 	movhi	r4,514
 2000308:	21285404 	addi	r4,r4,-24240
 200030c:	20047a40 	call	20047a4 <puts>
 2000310:	0000c806 	br	2000634 <apps_task+0x3c0>
	//<TODO> Maybe change this loop from infinite later as
	//we can stop testing the APPS if an error occurs
	while (1) {
		//failure checking
#if !defined(RUN_AVG_TASK_TIME_TEST)
		if(OSSemAccept(motor_tps_failure_flag) != SEM_FLAG_NO_ERROR){
 2000314:	d1270417 	ldw	r4,-25584(gp)
 2000318:	2014f6c0 	call	2014f6c <OSSemAccept>
 200031c:	10bfffcc 	andi	r2,r2,65535
 2000320:	1005003a 	cmpeq	r2,r2,zero
 2000324:	1000081e 	bne	r2,zero,2000348 <apps_task+0xd4>
			printf("Possible motor failure, block apps_task\n");
 2000328:	010080b4 	movhi	r4,514
 200032c:	21285904 	addi	r4,r4,-24220
 2000330:	20047a40 	call	20047a4 <puts>
			OSSemPend(apps_failure_resolved_flag, Q_TIMEOUT_WAIT_FOREVER, &err);
 2000334:	d1270217 	ldw	r4,-25592(gp)
 2000338:	e1bffe44 	addi	r6,fp,-7
 200033c:	000b883a 	mov	r5,zero
 2000340:	20153e00 	call	20153e0 <OSSemPend>
 2000344:	00001a06 	br	20003b0 <apps_task+0x13c>
		}else if(OSSemAccept(apps_failure_flag) != SEM_FLAG_NO_ERROR){
 2000348:	d1270717 	ldw	r4,-25572(gp)
 200034c:	2014f6c0 	call	2014f6c <OSSemAccept>
 2000350:	10bfffcc 	andi	r2,r2,65535
 2000354:	1005003a 	cmpeq	r2,r2,zero
 2000358:	1000091e 	bne	r2,zero,2000380 <apps_task+0x10c>
			printf("Possible APPS failure, block apps_task\n");
 200035c:	010080b4 	movhi	r4,514
 2000360:	21286304 	addi	r4,r4,-24180
 2000364:	20047a40 	call	20047a4 <puts>
			apps_check_timer_activated = FALSE;
 2000368:	e03ffe05 	stb	zero,-8(fp)
			OSSemPend(apps_failure_resolved_flag, Q_TIMEOUT_WAIT_FOREVER, &err);
 200036c:	d1270217 	ldw	r4,-25592(gp)
 2000370:	e1bffe44 	addi	r6,fp,-7
 2000374:	000b883a 	mov	r5,zero
 2000378:	20153e00 	call	20153e0 <OSSemPend>
 200037c:	00000c06 	br	20003b0 <apps_task+0x13c>
		}else if(OSSemAccept(apps_external_failure_flag) != SEM_FLAG_NO_ERROR){
 2000380:	d1270517 	ldw	r4,-25580(gp)
 2000384:	2014f6c0 	call	2014f6c <OSSemAccept>
 2000388:	10bfffcc 	andi	r2,r2,65535
 200038c:	1005003a 	cmpeq	r2,r2,zero
 2000390:	1000071e 	bne	r2,zero,20003b0 <apps_task+0x13c>
			printf("External failure, block apps_task\n");
 2000394:	010080b4 	movhi	r4,514
 2000398:	21286d04 	addi	r4,r4,-24140
 200039c:	20047a40 	call	20047a4 <puts>
			OSSemPend(apps_failure_resolved_flag, Q_TIMEOUT_WAIT_FOREVER, &err);
 20003a0:	d1270217 	ldw	r4,-25592(gp)
 20003a4:	e1bffe44 	addi	r6,fp,-7
 20003a8:	000b883a 	mov	r5,zero
 20003ac:	20153e00 	call	20153e0 <OSSemPend>
		}
#endif
		//WSS checking
		alt_up_de0_nano_adc_update(adc);
 20003b0:	d0a70617 	ldw	r2,-25576(gp)
 20003b4:	10800a17 	ldw	r2,40(r2)
 20003b8:	10000035 	stwio	zero,0(r2)
		if(WSS_VALUE_MISMATCH(WSS_1_ADC_CHANNEL, WSS_2_ADC_CHANNEL)){
 20003bc:	01000104 	movi	r4,4
 20003c0:	01400144 	movi	r5,5
 20003c4:	01800784 	movi	r6,30
 20003c8:	01c003f4 	movhi	r7,15
 20003cc:	39d09004 	addi	r7,r7,16960
 20003d0:	2002ddc0 	call	2002ddc <int32U_differ_by_percent>
 20003d4:	10803fcc 	andi	r2,r2,255
 20003d8:	1005003a 	cmpeq	r2,r2,zero
 20003dc:	10000c1e 	bne	r2,zero,2000410 <apps_task+0x19c>
			*(INT8U*)GREEN_LEDS_BASE = WSS_ACTIVE_LED;
 20003e0:	00c10074 	movhi	r3,1025
 20003e4:	18e42804 	addi	r3,r3,-28512
 20003e8:	00bfe004 	movi	r2,-128
 20003ec:	18800005 	stb	r2,0(r3)
			if(slip_control_mode == TRUE){
 20003f0:	e0bffc43 	ldbu	r2,-15(fp)
 20003f4:	10803fe0 	cmpeqi	r2,r2,255
 20003f8:	103fc61e 	bne	r2,zero,2000314 <apps_task+0xa0>
				continue;
			}
			slip_control_mode = TRUE;
 20003fc:	00bfffc4 	movi	r2,-1
 2000400:	e0bffc45 	stb	r2,-15(fp)
			set_new_motor_position_by_tps(SLIP_CONTROL_THROTTLE_POS);
 2000404:	01000504 	movi	r4,20
 2000408:	20006680 	call	2000668 <set_new_motor_position_by_tps>
			continue;
 200040c:	003fc106 	br	2000314 <apps_task+0xa0>
		}else{
			slip_control_mode = FALSE;
 2000410:	e03ffc45 	stb	zero,-15(fp)
			*(INT8U*)GREEN_LEDS_BASE = NO_ERROR_INDICATION_LED;
 2000414:	00810074 	movhi	r2,1025
 2000418:	10a42804 	addi	r2,r2,-28512
 200041c:	10000005 	stb	zero,0(r2)
		}

		//Shift matching
		alt_up_de0_nano_adc_update(adc);
 2000420:	d0a70617 	ldw	r2,-25576(gp)
 2000424:	10800a17 	ldw	r2,40(r2)
 2000428:	10000035 	stwio	zero,0(r2)
		if(shift_matching_mode == TRUE){
 200042c:	e0bffc03 	ldbu	r2,-16(fp)
 2000430:	10803fd8 	cmpnei	r2,r2,255
 2000434:	1000101e 	bne	r2,zero,2000478 <apps_task+0x204>
			if(RPM_VALUE_NOT_REACHED(alt_up_de0_nano_adc_read(adc, RPM_ADC_CHANNEL), target_RPM)){
 2000438:	d1270617 	ldw	r4,-25576(gp)
 200043c:	01400184 	movi	r5,6
 2000440:	2018ac40 	call	2018ac4 <alt_up_de0_nano_adc_read>
 2000444:	1009883a 	mov	r4,r2
 2000448:	e17ffd17 	ldw	r5,-12(fp)
 200044c:	01802584 	movi	r6,150
 2000450:	2002d540 	call	2002d54 <int32U_changed_by_threshold>
 2000454:	10803fcc 	andi	r2,r2,255
 2000458:	1004c03a 	cmpne	r2,r2,zero
 200045c:	103fad1e 	bne	r2,zero,2000314 <apps_task+0xa0>
				continue;
			}else{
				signal_shift_start();
 2000460:	20018080 	call	2001808 <signal_shift_start>
				OSSemPend(exit_shift_matching_flag, Q_TIMEOUT_WAIT_FOREVER, &err);
 2000464:	d1270817 	ldw	r4,-25568(gp)
 2000468:	e1bffe44 	addi	r6,fp,-7
 200046c:	000b883a 	mov	r5,zero
 2000470:	20153e00 	call	20153e0 <OSSemPend>
				shift_matching_mode = FALSE;
 2000474:	e03ffc05 	stb	zero,-16(fp)
			}
		}

		shift_req* ptr = NULL;
 2000478:	e03ffa15 	stw	zero,-24(fp)
		if(shift_matching_mode == FALSE){
 200047c:	e0bffc03 	ldbu	r2,-16(fp)
 2000480:	1004c03a 	cmpne	r2,r2,zero
 2000484:	1000171e 	bne	r2,zero,20004e4 <apps_task+0x270>
			ptr = (shift_req*) OSQAccept(motor_cmd_q, &err);
 2000488:	d1270917 	ldw	r4,-25564(gp)
 200048c:	e17ffe44 	addi	r5,fp,-7
 2000490:	2013c380 	call	2013c38 <OSQAccept>
 2000494:	e0bffa15 	stw	r2,-24(fp)
			if(ptr != NULL){
 2000498:	e0bffa17 	ldw	r2,-24(fp)
 200049c:	1005003a 	cmpeq	r2,r2,zero
 20004a0:	1000101e 	bne	r2,zero,20004e4 <apps_task+0x270>
				shift_matching_mode = TRUE;
 20004a4:	00bfffc4 	movi	r2,-1
 20004a8:	e0bffc05 	stb	r2,-16(fp)
				target_RPM = get_new_rpm_needed(alt_up_de0_nano_adc_read(adc, RPM_ADC_CHANNEL), ptr->curr_gear, ptr->new_gear);
 20004ac:	d1270617 	ldw	r4,-25576(gp)
 20004b0:	01400184 	movi	r5,6
 20004b4:	2018ac40 	call	2018ac4 <alt_up_de0_nano_adc_read>
 20004b8:	113fffcc 	andi	r4,r2,65535
 20004bc:	e0bffa17 	ldw	r2,-24(fp)
 20004c0:	10800003 	ldbu	r2,0(r2)
 20004c4:	11403fcc 	andi	r5,r2,255
 20004c8:	e0bffa17 	ldw	r2,-24(fp)
 20004cc:	10800043 	ldbu	r2,1(r2)
 20004d0:	11803fcc 	andi	r6,r2,255
 20004d4:	2002ce40 	call	2002ce4 <get_new_rpm_needed>
 20004d8:	10bfffcc 	andi	r2,r2,65535
 20004dc:	e0bffd15 	stw	r2,-12(fp)
				continue;
 20004e0:	003f8c06 	br	2000314 <apps_task+0xa0>
			}
		}

		//APPS checking
		alt_up_de0_nano_adc_update(adc);
 20004e4:	d0a70617 	ldw	r2,-25576(gp)
 20004e8:	10800a17 	ldw	r2,40(r2)
 20004ec:	10000035 	stwio	zero,0(r2)
		INT16U apps_1_reading = alt_up_de0_nano_adc_read(adc,
				APPS_1_ADC_CHANNEL);
 20004f0:	d1270617 	ldw	r4,-25576(gp)
 20004f4:	000b883a 	mov	r5,zero
 20004f8:	2018ac40 	call	2018ac4 <alt_up_de0_nano_adc_read>
 20004fc:	e0bff90d 	sth	r2,-28(fp)
		INT16U apps_2_reading = alt_up_de0_nano_adc_read(adc,
				APPS_2_ADC_CHANNEL);
 2000500:	d1270617 	ldw	r4,-25576(gp)
 2000504:	01400044 	movi	r5,1
 2000508:	2018ac40 	call	2018ac4 <alt_up_de0_nano_adc_read>
 200050c:	e0bff88d 	sth	r2,-30(fp)
		if (APPS_VALUE_CHANGED(apps_1_reading,
 2000510:	e13ff90b 	ldhu	r4,-28(fp)
 2000514:	d0a7008b 	ldhu	r2,-25598(gp)
 2000518:	117fffcc 	andi	r5,r2,65535
 200051c:	01800784 	movi	r6,30
 2000520:	2002d540 	call	2002d54 <int32U_changed_by_threshold>
 2000524:	10803fcc 	andi	r2,r2,255
 2000528:	1004c03a 	cmpne	r2,r2,zero
 200052c:	1000081e 	bne	r2,zero,2000550 <apps_task+0x2dc>
 2000530:	e13ff88b 	ldhu	r4,-30(fp)
 2000534:	d0a7000b 	ldhu	r2,-25600(gp)
 2000538:	117fffcc 	andi	r5,r2,65535
 200053c:	01800784 	movi	r6,30
 2000540:	2002d540 	call	2002d54 <int32U_changed_by_threshold>
 2000544:	10803fcc 	andi	r2,r2,255
 2000548:	1005003a 	cmpeq	r2,r2,zero
 200054c:	1000331e 	bne	r2,zero,200061c <apps_task+0x3a8>
				last_apps_1_reading)
				|| APPS_VALUE_CHANGED(apps_2_reading, last_apps_2_reading)) {
#if !defined(RUN_AVG_TASK_TIME_TEST)
			printf("apps1 read value:%d\n", apps_1_reading);
 2000550:	e17ff90b 	ldhu	r5,-28(fp)
 2000554:	010080b4 	movhi	r4,514
 2000558:	21287604 	addi	r4,r4,-24104
 200055c:	200468c0 	call	200468c <printf>
			printf("apps2 read value:%d\n", apps_2_reading);
 2000560:	e17ff88b 	ldhu	r5,-30(fp)
 2000564:	010080b4 	movhi	r4,514
 2000568:	21287c04 	addi	r4,r4,-24080
 200056c:	200468c0 	call	200468c <printf>
#endif
			if (APPS_VALUE_MISMATCH(apps_1_reading, apps_2_reading)) {
 2000570:	e13ff90b 	ldhu	r4,-28(fp)
 2000574:	e17ff88b 	ldhu	r5,-30(fp)
 2000578:	01802d04 	movi	r6,180
 200057c:	01c003f4 	movhi	r7,15
 2000580:	39d09004 	addi	r7,r7,16960
 2000584:	2002ddc0 	call	2002ddc <int32U_differ_by_percent>
 2000588:	10803fcc 	andi	r2,r2,255
 200058c:	1005003a 	cmpeq	r2,r2,zero
 2000590:	10000c1e 	bne	r2,zero,20005c4 <apps_task+0x350>
				//we have a mismatch, check again after 100 ms
				if(apps_check_timer_activated == FALSE){
 2000594:	e0bffe03 	ldbu	r2,-8(fp)
 2000598:	1004c03a 	cmpne	r2,r2,zero
 200059c:	10001b1e 	bne	r2,zero,200060c <apps_task+0x398>
					apps_check_timer_activated = TRUE;
 20005a0:	00bfffc4 	movi	r2,-1
 20005a4:	e0bffe05 	stb	r2,-8(fp)
					printf("set alarm\n");
 20005a8:	010080b4 	movhi	r4,514
 20005ac:	21288204 	addi	r4,r4,-24056
 20005b0:	20047a40 	call	20047a4 <puts>
					alarm = (alt_alarm*)malloc(sizeof(alt_alarm));
 20005b4:	01000604 	movi	r4,24
 20005b8:	2003d200 	call	2003d20 <malloc>
 20005bc:	e0bffb15 	stw	r2,-20(fp)
 20005c0:	00001206 	br	200060c <apps_task+0x398>
					//alt_alarm_start(alarm, SENSOR_VAL_COMP_DELAY_TICKS, &apps_value_comp_callback, (void*)alarm);
				}
			} else {
				if(apps_check_timer_activated == TRUE){
 20005c4:	e0bffe03 	ldbu	r2,-8(fp)
 20005c8:	10803fd8 	cmpnei	r2,r2,255
 20005cc:	1000061e 	bne	r2,zero,20005e8 <apps_task+0x374>
					printf("clear alarm\n");
 20005d0:	010080b4 	movhi	r4,514
 20005d4:	21288504 	addi	r4,r4,-24044
 20005d8:	20047a40 	call	20047a4 <puts>
					//alt_alarm_stop(alarm);
					free(alarm);
 20005dc:	e13ffb17 	ldw	r4,-20(fp)
 20005e0:	2003d0c0 	call	2003d0c <free>
					apps_check_timer_activated = FALSE;
 20005e4:	e03ffe05 	stb	zero,-8(fp)
				}

				INT16U final_apps_value = (apps_1_reading + apps_2_reading) / 2;
 20005e8:	e0fff90b 	ldhu	r3,-28(fp)
 20005ec:	e0bff88b 	ldhu	r2,-30(fp)
 20005f0:	1887883a 	add	r3,r3,r2
 20005f4:	1804d7fa 	srli	r2,r3,31
 20005f8:	10c5883a 	add	r2,r2,r3
 20005fc:	1005d07a 	srai	r2,r2,1
 2000600:	e0bff80d 	sth	r2,-32(fp)
				set_new_motor_position(final_apps_value);
 2000604:	e13ff80b 	ldhu	r4,-32(fp)
 2000608:	20007240 	call	2000724 <set_new_motor_position>
			}
			last_apps_1_reading = apps_1_reading;
 200060c:	e0bff90b 	ldhu	r2,-28(fp)
 2000610:	d0a7008d 	sth	r2,-25598(gp)
			last_apps_2_reading = apps_2_reading;
 2000614:	e0bff88b 	ldhu	r2,-30(fp)
 2000618:	d0a7000d 	sth	r2,-25600(gp)
		if(iteration_count % AVG_ITERATION == 0){
			end_tick = alt_timestamp();
			printf("a%d:%d\n", iteration_count, (end_tick - start_tick)/iteration_count);
		}
#endif
		OSTimeDlyHMSM(APPS_MOTOR_TASK_DELAY_HOURS,
 200061c:	0009883a 	mov	r4,zero
 2000620:	000b883a 	mov	r5,zero
 2000624:	000d883a 	mov	r6,zero
 2000628:	01c00c84 	movi	r7,50
 200062c:	20176c00 	call	20176c0 <OSTimeDlyHMSM>
				APPS_MOTOR_TASK_DELAY_MINUTES, APPS_MOTOR_TASK_DELAY_SECONDS,
				APPS_MOTOR_TASK_DELAY_MILLISEC);
	}
 2000630:	003f3806 	br	2000314 <apps_task+0xa0>
}
 2000634:	e037883a 	mov	sp,fp
 2000638:	dfc00117 	ldw	ra,4(sp)
 200063c:	df000017 	ldw	fp,0(sp)
 2000640:	dec00204 	addi	sp,sp,8
 2000644:	f800283a 	ret

02000648 <get_motor_cmd_q>:

/* Getter for motor command Q for other modules to use */
OS_EVENT* get_motor_cmd_q() {
 2000648:	deffff04 	addi	sp,sp,-4
 200064c:	df000015 	stw	fp,0(sp)
 2000650:	d839883a 	mov	fp,sp
	return motor_cmd_q;
 2000654:	d0a70917 	ldw	r2,-25564(gp)
}
 2000658:	e037883a 	mov	sp,fp
 200065c:	df000017 	ldw	fp,0(sp)
 2000660:	dec00104 	addi	sp,sp,4
 2000664:	f800283a 	ret

02000668 <set_new_motor_position_by_tps>:

BOOL set_new_motor_position_by_tps(INT16U tps_reading) {
 2000668:	defff904 	addi	sp,sp,-28
 200066c:	dfc00615 	stw	ra,24(sp)
 2000670:	df000515 	stw	fp,20(sp)
 2000674:	df000504 	addi	fp,sp,20
 2000678:	e13fff0d 	sth	r4,-4(fp)
	INT8U err;
	motor_control_request* req = (motor_control_request*) malloc(sizeof(motor_control_request));
 200067c:	01000204 	movi	r4,8
 2000680:	2003d200 	call	2003d20 <malloc>
 2000684:	e0bffd15 	stw	r2,-12(fp)
	req->request_type = MOTOR_CONTROL_REQ_TPS_POS;
 2000688:	e0bffd17 	ldw	r2,-12(fp)
 200068c:	10000105 	stb	zero,4(r2)
	req->value = tps_reading;
 2000690:	e0ffff0b 	ldhu	r3,-4(fp)
 2000694:	e0bffd17 	ldw	r2,-12(fp)
 2000698:	10c00015 	stw	r3,0(r2)
	OS_EVENT* result_q = post_new_request(req);
 200069c:	e13ffd17 	ldw	r4,-12(fp)
 20006a0:	2000cfc0 	call	2000cfc <post_new_request>
 20006a4:	e0bffc15 	stw	r2,-16(fp)
	INT16U result_code = *(INT16U*) OSQPend(result_q, Q_TIMEOUT_WAIT_FOREVER, &err);
 20006a8:	e1bffe04 	addi	r6,fp,-8
 20006ac:	e13ffc17 	ldw	r4,-16(fp)
 20006b0:	000b883a 	mov	r5,zero
 20006b4:	20143680 	call	2014368 <OSQPend>
 20006b8:	1080000b 	ldhu	r2,0(r2)
 20006bc:	e0bffb0d 	sth	r2,-20(fp)
	if(result_code == REQUEST_RESULT_FAIL_TIMEOUT){
 20006c0:	e0bffb0b 	ldhu	r2,-20(fp)
 20006c4:	10800058 	cmpnei	r2,r2,1
 20006c8:	1000061e 	bne	r2,zero,20006e4 <set_new_motor_position_by_tps+0x7c>
		OSSemPost(motor_tps_failure_flag);
 20006cc:	d1270417 	ldw	r4,-25584(gp)
 20006d0:	20157d80 	call	20157d8 <OSSemPost>
		OSQPost(failure_msg_q, (void*) ERR_EXPECTED_THROTTLE_POS_MISMATCH);
 20006d4:	d1270117 	ldw	r4,-25596(gp)
 20006d8:	01400044 	movi	r5,1
 20006dc:	20148040 	call	2014804 <OSQPost>
 20006e0:	00000806 	br	2000704 <set_new_motor_position_by_tps+0x9c>
	}else if(result_code == REQUEST_RESULT_FAIL_TPS){
 20006e4:	e0bffb0b 	ldhu	r2,-20(fp)
 20006e8:	10800098 	cmpnei	r2,r2,2
 20006ec:	1000051e 	bne	r2,zero,2000704 <set_new_motor_position_by_tps+0x9c>
		OSSemPost(motor_tps_failure_flag);
 20006f0:	d1270417 	ldw	r4,-25584(gp)
 20006f4:	20157d80 	call	20157d8 <OSSemPost>
		OSQPost(failure_msg_q, (void*) ERR_TPS_READING_MISMATCH);
 20006f8:	d1270117 	ldw	r4,-25596(gp)
 20006fc:	014000c4 	movi	r5,3
 2000700:	20148040 	call	2014804 <OSQPost>
	}
	free(req);
 2000704:	e13ffd17 	ldw	r4,-12(fp)
 2000708:	2003d0c0 	call	2003d0c <free>
	return TRUE;
 200070c:	00803fc4 	movi	r2,255
}
 2000710:	e037883a 	mov	sp,fp
 2000714:	dfc00117 	ldw	ra,4(sp)
 2000718:	df000017 	ldw	fp,0(sp)
 200071c:	dec00204 	addi	sp,sp,8
 2000720:	f800283a 	ret

02000724 <set_new_motor_position>:

/* Set motor to reach a new position, return true if no error occurred */
BOOL set_new_motor_position(INT16U apps_reading) {
 2000724:	defffc04 	addi	sp,sp,-16
 2000728:	dfc00315 	stw	ra,12(sp)
 200072c:	df000215 	stw	fp,8(sp)
 2000730:	df000204 	addi	fp,sp,8
 2000734:	e13fff0d 	sth	r4,-4(fp)
	INT16U tps = get_tps_from_apps(apps_reading);
 2000738:	e13fff0b 	ldhu	r4,-4(fp)
 200073c:	2002b880 	call	2002b88 <get_tps_from_apps>
 2000740:	e0bffe0d 	sth	r2,-8(fp)
	return set_new_motor_position_by_tps(tps);
 2000744:	e13ffe0b 	ldhu	r4,-8(fp)
 2000748:	20006680 	call	2000668 <set_new_motor_position_by_tps>
 200074c:	10803fcc 	andi	r2,r2,255
}
 2000750:	e037883a 	mov	sp,fp
 2000754:	dfc00117 	ldw	ra,4(sp)
 2000758:	df000017 	ldw	fp,0(sp)
 200075c:	dec00204 	addi	sp,sp,8
 2000760:	f800283a 	ret

02000764 <hitec_servo_demo>:
 * On success, returns a scaled integer from 0 to 10000 representing duty
 * cycle from 0% to 10.000%. Returns ILLEGAL_THROTTLE_POSITION if the
 * desired position is not allowed. This function is designed to run a hobby
 * servo but will be changed to run the DC motor later.
 */
INT32U hitec_servo_demo(INT16U commanded_position) {
 2000764:	defffb04 	addi	sp,sp,-20
 2000768:	dfc00415 	stw	ra,16(sp)
 200076c:	df000315 	stw	fp,12(sp)
 2000770:	df000304 	addi	fp,sp,12
 2000774:	e13ffe0d 	sth	r4,-8(fp)
	if(commanded_position > THROTTLE_POSITION_MAX
 2000778:	e0bffe0b 	ldhu	r2,-8(fp)
 200077c:	1080fa70 	cmpltui	r2,r2,1001
 2000780:	1000031e 	bne	r2,zero,2000790 <hitec_servo_demo+0x2c>
			|| commanded_position < THROTTLE_POSITION_MIN) {
		return ILLEGAL_THROTTLE_POSITION;
 2000784:	00bfffd4 	movui	r2,65535
 2000788:	e0bfff15 	stw	r2,-4(fp)
 200078c:	00000c06 	br	20007c0 <hitec_servo_demo+0x5c>
	//  70  |  700  |   467   |  1667  |  8335 | 8.33333
	//  75  |  750  |   500   |  1700  |  8500 | 8.5
	//  80  |  800  |   533   |  1733  |  8665 | 8.66667
	//  90  |  900  |   600   |  1800  |  9000 | 9

	INT32U duty_cycle = (commanded_position * 2 / 3 + 1200) * 5;
 2000790:	e0bffe0b 	ldhu	r2,-8(fp)
 2000794:	1085883a 	add	r2,r2,r2
 2000798:	1009883a 	mov	r4,r2
 200079c:	014000c4 	movi	r5,3
 20007a0:	200360c0 	call	200360c <__divsi3>
 20007a4:	1009883a 	mov	r4,r2
 20007a8:	01400144 	movi	r5,5
 20007ac:	20036dc0 	call	20036dc <__mulsi3>
 20007b0:	1085dc04 	addi	r2,r2,6000
 20007b4:	e0bffd15 	stw	r2,-12(fp)

	return duty_cycle;
 20007b8:	e0bffd17 	ldw	r2,-12(fp)
 20007bc:	e0bfff15 	stw	r2,-4(fp)
 20007c0:	e0bfff17 	ldw	r2,-4(fp)
}
 20007c4:	e037883a 	mov	sp,fp
 20007c8:	dfc00117 	ldw	ra,4(sp)
 20007cc:	df000017 	ldw	fp,0(sp)
 20007d0:	dec00204 	addi	sp,sp,8
 20007d4:	f800283a 	ret

020007d8 <get_motor_failure_flag>:

OS_EVENT* get_motor_failure_flag(){
 20007d8:	deffff04 	addi	sp,sp,-4
 20007dc:	df000015 	stw	fp,0(sp)
 20007e0:	d839883a 	mov	fp,sp
	return motor_tps_failure_flag;
 20007e4:	d0a70417 	ldw	r2,-25584(gp)
}
 20007e8:	e037883a 	mov	sp,fp
 20007ec:	df000017 	ldw	fp,0(sp)
 20007f0:	dec00104 	addi	sp,sp,4
 20007f4:	f800283a 	ret

020007f8 <get_apps_task_external_failure_flag>:

OS_EVENT* get_apps_task_external_failure_flag(){
 20007f8:	deffff04 	addi	sp,sp,-4
 20007fc:	df000015 	stw	fp,0(sp)
 2000800:	d839883a 	mov	fp,sp
	return apps_external_failure_flag;
 2000804:	d0a70517 	ldw	r2,-25580(gp)
}
 2000808:	e037883a 	mov	sp,fp
 200080c:	df000017 	ldw	fp,0(sp)
 2000810:	dec00104 	addi	sp,sp,4
 2000814:	f800283a 	ret

02000818 <get_apps_task_failure_resolved_flag>:

OS_EVENT* get_apps_task_failure_resolved_flag(){
 2000818:	deffff04 	addi	sp,sp,-4
 200081c:	df000015 	stw	fp,0(sp)
 2000820:	d839883a 	mov	fp,sp
	return apps_failure_resolved_flag;
 2000824:	d0a70217 	ldw	r2,-25592(gp)
}
 2000828:	e037883a 	mov	sp,fp
 200082c:	df000017 	ldw	fp,0(sp)
 2000830:	dec00104 	addi	sp,sp,4
 2000834:	f800283a 	ret

02000838 <signal_exit_shift_matching>:

void signal_exit_shift_matching(){
 2000838:	defffe04 	addi	sp,sp,-8
 200083c:	dfc00115 	stw	ra,4(sp)
 2000840:	df000015 	stw	fp,0(sp)
 2000844:	d839883a 	mov	fp,sp
	OSSemPost(exit_shift_matching_flag);
 2000848:	d1270817 	ldw	r4,-25568(gp)
 200084c:	20157d80 	call	20157d8 <OSSemPost>
}
 2000850:	e037883a 	mov	sp,fp
 2000854:	dfc00117 	ldw	ra,4(sp)
 2000858:	df000017 	ldw	fp,0(sp)
 200085c:	dec00204 	addi	sp,sp,8
 2000860:	f800283a 	ret

02000864 <failure_handler_task>:
 */

#include "failure_handler_task.h"

/*  Task routine for handling any failures motors/sensors */
void failure_handler_task(void* pdata) {
 2000864:	defff704 	addi	sp,sp,-36
 2000868:	dfc00815 	stw	ra,32(sp)
 200086c:	df000715 	stw	fp,28(sp)
 2000870:	df000704 	addi	fp,sp,28
 2000874:	e13ffc15 	stw	r4,-16(fp)

	INT8U err;
	OS_EVENT *failure_code_q = get_failure_msg_q();
 2000878:	2000cdc0 	call	2000cdc <get_failure_msg_q>
 200087c:	e0bffa15 	stw	r2,-24(fp)
	*(INT8U*)GREEN_LEDS_BASE = NO_ERROR_INDICATION_LED;
 2000880:	00810074 	movhi	r2,1025
 2000884:	10a42804 	addi	r2,r2,-28512
 2000888:	10000005 	stb	zero,0(r2)
	INT8U error_led = NO_ERROR_INDICATION_LED;
 200088c:	e03ff985 	stb	zero,-26(fp)
	INT8U next_clear_switch_val = *(INT8U*)SWITCH_BASE == SWITCH_OFF ? SWITCH_ON : SWITCH_OFF;
 2000890:	00810074 	movhi	r2,1025
 2000894:	10a42404 	addi	r2,r2,-28528
 2000898:	10800003 	ldbu	r2,0(r2)
 200089c:	10803fcc 	andi	r2,r2,255
 20008a0:	1005003a 	cmpeq	r2,r2,zero
 20008a4:	e0bff945 	stb	r2,-27(fp)
	while (1) {
		INT8U msg = (INT8U) OSQPend(failure_code_q, Q_TIMEOUT_WAIT_FOREVER, &err);
 20008a8:	e1bffb04 	addi	r6,fp,-20
 20008ac:	e13ffa17 	ldw	r4,-24(fp)
 20008b0:	000b883a 	mov	r5,zero
 20008b4:	20143680 	call	2014368 <OSQPend>
 20008b8:	e0bff905 	stb	r2,-28(fp)
		if (err)
 20008bc:	e0bffb03 	ldbu	r2,-20(fp)
 20008c0:	10803fcc 	andi	r2,r2,255
 20008c4:	1005003a 	cmpeq	r2,r2,zero
 20008c8:	1000051e 	bne	r2,zero,20008e0 <failure_handler_task+0x7c>
			disp_err(err, "Error pending on q");
 20008cc:	e0bffb03 	ldbu	r2,-20(fp)
 20008d0:	11003fcc 	andi	r4,r2,255
 20008d4:	014080b4 	movhi	r5,514
 20008d8:	29688804 	addi	r5,r5,-24032
 20008dc:	2000c9c0 	call	2000c9c <disp_err>

		//Routing table for all possible errors
		switch (msg) {
 20008e0:	e0bff903 	ldbu	r2,-28(fp)
 20008e4:	e0bfff15 	stw	r2,-4(fp)
 20008e8:	e0ffff17 	ldw	r3,-4(fp)
 20008ec:	18800060 	cmpeqi	r2,r3,1
 20008f0:	10000e1e 	bne	r2,zero,200092c <failure_handler_task+0xc8>
 20008f4:	e0ffff17 	ldw	r3,-4(fp)
 20008f8:	18800088 	cmpgei	r2,r3,2
 20008fc:	1000041e 	bne	r2,zero,2000910 <failure_handler_task+0xac>
 2000900:	e0ffff17 	ldw	r3,-4(fp)
 2000904:	1805003a 	cmpeq	r2,r3,zero
 2000908:	1000351e 	bne	r2,zero,20009e0 <failure_handler_task+0x17c>
 200090c:	00004c06 	br	2000a40 <failure_handler_task+0x1dc>
 2000910:	e0ffff17 	ldw	r3,-4(fp)
 2000914:	188000a0 	cmpeqi	r2,r3,2
 2000918:	1000131e 	bne	r2,zero,2000968 <failure_handler_task+0x104>
 200091c:	e0ffff17 	ldw	r3,-4(fp)
 2000920:	188000e0 	cmpeqi	r2,r3,3
 2000924:	10001f1e 	bne	r2,zero,20009a4 <failure_handler_task+0x140>
 2000928:	00004506 	br	2000a40 <failure_handler_task+0x1dc>

		case ERR_EXPECTED_THROTTLE_POS_MISMATCH:
			printf("Possible motor failure detected!\n");
 200092c:	010080b4 	movhi	r4,514
 2000930:	21288d04 	addi	r4,r4,-24012
 2000934:	20047a40 	call	20047a4 <puts>
			if(OSSemAccept(get_solenoid_task_external_failure_flag()) == SEM_FLAG_NO_ERROR)
 2000938:	20017c80 	call	20017c8 <get_solenoid_task_external_failure_flag>
 200093c:	1009883a 	mov	r4,r2
 2000940:	2014f6c0 	call	2014f6c <OSSemAccept>
 2000944:	10bfffcc 	andi	r2,r2,65535
 2000948:	1004c03a 	cmpne	r2,r2,zero
 200094c:	1000031e 	bne	r2,zero,200095c <failure_handler_task+0xf8>
				OSSemPost(get_solenoid_task_external_failure_flag());
 2000950:	20017c80 	call	20017c8 <get_solenoid_task_external_failure_flag>
 2000954:	1009883a 	mov	r4,r2
 2000958:	20157d80 	call	20157d8 <OSSemPost>
			error_led = MOTOR_FAILURE_INDICATION_LED;
 200095c:	00800044 	movi	r2,1
 2000960:	e0bff985 	stb	r2,-26(fp)
			break;
 2000964:	00006306 	br	2000af4 <failure_handler_task+0x290>

		case ERR_APPS_READING_MISMATCH:
			printf("Possible APPS failure detected!\n");
 2000968:	010080b4 	movhi	r4,514
 200096c:	21289604 	addi	r4,r4,-23976
 2000970:	20047a40 	call	20047a4 <puts>
			if(OSSemAccept(get_solenoid_task_external_failure_flag()) == SEM_FLAG_NO_ERROR)
 2000974:	20017c80 	call	20017c8 <get_solenoid_task_external_failure_flag>
 2000978:	1009883a 	mov	r4,r2
 200097c:	2014f6c0 	call	2014f6c <OSSemAccept>
 2000980:	10bfffcc 	andi	r2,r2,65535
 2000984:	1004c03a 	cmpne	r2,r2,zero
 2000988:	1000031e 	bne	r2,zero,2000998 <failure_handler_task+0x134>
				OSSemPost(get_solenoid_task_external_failure_flag());
 200098c:	20017c80 	call	20017c8 <get_solenoid_task_external_failure_flag>
 2000990:	1009883a 	mov	r4,r2
 2000994:	20157d80 	call	20157d8 <OSSemPost>
			error_led = APPS_FAILURE_INDICATION_LED;
 2000998:	00800104 	movi	r2,4
 200099c:	e0bff985 	stb	r2,-26(fp)
			break;
 20009a0:	00005406 	br	2000af4 <failure_handler_task+0x290>

		case ERR_TPS_READING_MISMATCH:
			printf("Possible TPS failure detected!\n");
 20009a4:	010080b4 	movhi	r4,514
 20009a8:	21289e04 	addi	r4,r4,-23944
 20009ac:	20047a40 	call	20047a4 <puts>
			if(OSSemAccept(get_solenoid_task_external_failure_flag()) == SEM_FLAG_NO_ERROR)
 20009b0:	20017c80 	call	20017c8 <get_solenoid_task_external_failure_flag>
 20009b4:	1009883a 	mov	r4,r2
 20009b8:	2014f6c0 	call	2014f6c <OSSemAccept>
 20009bc:	10bfffcc 	andi	r2,r2,65535
 20009c0:	1004c03a 	cmpne	r2,r2,zero
 20009c4:	1000031e 	bne	r2,zero,20009d4 <failure_handler_task+0x170>
				OSSemPost(get_solenoid_task_external_failure_flag());
 20009c8:	20017c80 	call	20017c8 <get_solenoid_task_external_failure_flag>
 20009cc:	1009883a 	mov	r4,r2
 20009d0:	20157d80 	call	20157d8 <OSSemPost>
			error_led = TPS_FAILURE_INDICATION_LED;
 20009d4:	00800084 	movi	r2,2
 20009d8:	e0bff985 	stb	r2,-26(fp)
			break;
 20009dc:	00004506 	br	2000af4 <failure_handler_task+0x290>

		case ERR_UNKNOWN:
			printf("Unknown failure detected!\n");
 20009e0:	010080b4 	movhi	r4,514
 20009e4:	2128a604 	addi	r4,r4,-23912
 20009e8:	20047a40 	call	20047a4 <puts>
			if(OSSemAccept(get_apps_task_external_failure_flag()) == SEM_FLAG_NO_ERROR)
 20009ec:	20007f80 	call	20007f8 <get_apps_task_external_failure_flag>
 20009f0:	1009883a 	mov	r4,r2
 20009f4:	2014f6c0 	call	2014f6c <OSSemAccept>
 20009f8:	10bfffcc 	andi	r2,r2,65535
 20009fc:	1004c03a 	cmpne	r2,r2,zero
 2000a00:	1000031e 	bne	r2,zero,2000a10 <failure_handler_task+0x1ac>
				OSSemPost(get_apps_task_external_failure_flag());
 2000a04:	20007f80 	call	20007f8 <get_apps_task_external_failure_flag>
 2000a08:	1009883a 	mov	r4,r2
 2000a0c:	20157d80 	call	20157d8 <OSSemPost>
			if(OSSemAccept(get_solenoid_task_external_failure_flag()) == SEM_FLAG_NO_ERROR)
 2000a10:	20017c80 	call	20017c8 <get_solenoid_task_external_failure_flag>
 2000a14:	1009883a 	mov	r4,r2
 2000a18:	2014f6c0 	call	2014f6c <OSSemAccept>
 2000a1c:	10bfffcc 	andi	r2,r2,65535
 2000a20:	1004c03a 	cmpne	r2,r2,zero
 2000a24:	1000031e 	bne	r2,zero,2000a34 <failure_handler_task+0x1d0>
				OSSemPost(get_solenoid_task_external_failure_flag());
 2000a28:	20017c80 	call	20017c8 <get_solenoid_task_external_failure_flag>
 2000a2c:	1009883a 	mov	r4,r2
 2000a30:	20157d80 	call	20157d8 <OSSemPost>
			error_led = UNKNOWN_FAILURE_INDICATION_LED;
 2000a34:	008003c4 	movi	r2,15
 2000a38:	e0bff985 	stb	r2,-26(fp)
			break;
 2000a3c:	00002d06 	br	2000af4 <failure_handler_task+0x290>

		default:
			printf("Unknown failure code\n");
 2000a40:	010080b4 	movhi	r4,514
 2000a44:	2128ad04 	addi	r4,r4,-23884
 2000a48:	20047a40 	call	20047a4 <puts>
			if(OSSemAccept(get_apps_task_external_failure_flag()) == SEM_FLAG_NO_ERROR)
 2000a4c:	20007f80 	call	20007f8 <get_apps_task_external_failure_flag>
 2000a50:	1009883a 	mov	r4,r2
 2000a54:	2014f6c0 	call	2014f6c <OSSemAccept>
 2000a58:	10bfffcc 	andi	r2,r2,65535
 2000a5c:	1004c03a 	cmpne	r2,r2,zero
 2000a60:	1000031e 	bne	r2,zero,2000a70 <failure_handler_task+0x20c>
				OSSemPost(get_apps_task_external_failure_flag());
 2000a64:	20007f80 	call	20007f8 <get_apps_task_external_failure_flag>
 2000a68:	1009883a 	mov	r4,r2
 2000a6c:	20157d80 	call	20157d8 <OSSemPost>
			if(OSSemAccept(get_solenoid_task_external_failure_flag()) == SEM_FLAG_NO_ERROR)
 2000a70:	20017c80 	call	20017c8 <get_solenoid_task_external_failure_flag>
 2000a74:	1009883a 	mov	r4,r2
 2000a78:	2014f6c0 	call	2014f6c <OSSemAccept>
 2000a7c:	10bfffcc 	andi	r2,r2,65535
 2000a80:	1004c03a 	cmpne	r2,r2,zero
 2000a84:	1000031e 	bne	r2,zero,2000a94 <failure_handler_task+0x230>
				OSSemPost(get_solenoid_task_external_failure_flag());
 2000a88:	20017c80 	call	20017c8 <get_solenoid_task_external_failure_flag>
 2000a8c:	1009883a 	mov	r4,r2
 2000a90:	20157d80 	call	20157d8 <OSSemPost>
			error_led = UNKNOWN_FAILURE_INDICATION_LED;
 2000a94:	008003c4 	movi	r2,15
 2000a98:	e0bff985 	stb	r2,-26(fp)
			break;
		}
		//wait for outside command
		while(*(INT8U*)SWITCH_BASE != next_clear_switch_val){
 2000a9c:	00001506 	br	2000af4 <failure_handler_task+0x290>
			*(INT8U*)GREEN_LEDS_BASE = *(INT8U*)GREEN_LEDS_BASE == NO_ERROR_INDICATION_LED ? error_led : NO_ERROR_INDICATION_LED;
 2000aa0:	00810074 	movhi	r2,1025
 2000aa4:	10a42804 	addi	r2,r2,-28512
 2000aa8:	e0bffe15 	stw	r2,-8(fp)
 2000aac:	00810074 	movhi	r2,1025
 2000ab0:	10a42804 	addi	r2,r2,-28512
 2000ab4:	10800003 	ldbu	r2,0(r2)
 2000ab8:	10803fcc 	andi	r2,r2,255
 2000abc:	1004c03a 	cmpne	r2,r2,zero
 2000ac0:	1000031e 	bne	r2,zero,2000ad0 <failure_handler_task+0x26c>
 2000ac4:	e0fff983 	ldbu	r3,-26(fp)
 2000ac8:	e0fffd05 	stb	r3,-12(fp)
 2000acc:	00000106 	br	2000ad4 <failure_handler_task+0x270>
 2000ad0:	e03ffd05 	stb	zero,-12(fp)
 2000ad4:	e0bffd03 	ldbu	r2,-12(fp)
 2000ad8:	e0fffe17 	ldw	r3,-8(fp)
 2000adc:	18800005 	stb	r2,0(r3)
			OSTimeDlyHMSM(FAILURE_HANDLER_TASK_DELAY_HOURS,
 2000ae0:	0009883a 	mov	r4,zero
 2000ae4:	000b883a 	mov	r5,zero
 2000ae8:	000d883a 	mov	r6,zero
 2000aec:	01c07d04 	movi	r7,500
 2000af0:	20176c00 	call	20176c0 <OSTimeDlyHMSM>
				OSSemPost(get_solenoid_task_external_failure_flag());
			error_led = UNKNOWN_FAILURE_INDICATION_LED;
			break;
		}
		//wait for outside command
		while(*(INT8U*)SWITCH_BASE != next_clear_switch_val){
 2000af4:	00810074 	movhi	r2,1025
 2000af8:	10a42404 	addi	r2,r2,-28528
 2000afc:	10800003 	ldbu	r2,0(r2)
 2000b00:	10c03fcc 	andi	r3,r2,255
 2000b04:	e0bff943 	ldbu	r2,-27(fp)
 2000b08:	18bfe51e 	bne	r3,r2,2000aa0 <failure_handler_task+0x23c>
			OSTimeDlyHMSM(FAILURE_HANDLER_TASK_DELAY_HOURS,
					FAILURE_HANDLER_TASK_DELAY_MINUTES,
					FAILURE_HANDLER_TASK_DELAY_SECONDS,
					LED_FLASH_PERIOD_MS);
		}
		next_clear_switch_val = *(INT8U*)SWITCH_BASE == SWITCH_OFF ? SWITCH_ON : SWITCH_OFF;
 2000b0c:	00810074 	movhi	r2,1025
 2000b10:	10a42404 	addi	r2,r2,-28528
 2000b14:	10800003 	ldbu	r2,0(r2)
 2000b18:	10803fcc 	andi	r2,r2,255
 2000b1c:	1005003a 	cmpeq	r2,r2,zero
 2000b20:	e0bff945 	stb	r2,-27(fp)
		*(INT8U*)GREEN_LEDS_BASE = NO_ERROR_INDICATION_LED;
 2000b24:	00810074 	movhi	r2,1025
 2000b28:	10a42804 	addi	r2,r2,-28512
 2000b2c:	10000005 	stb	zero,0(r2)
		if(OSSemAccept(get_apps_task_failure_resolved_flag()) == SEM_FLAG_ERROR_UNRESOLVED)
 2000b30:	20008180 	call	2000818 <get_apps_task_failure_resolved_flag>
 2000b34:	1009883a 	mov	r4,r2
 2000b38:	2014f6c0 	call	2014f6c <OSSemAccept>
 2000b3c:	10bfffcc 	andi	r2,r2,65535
 2000b40:	1004c03a 	cmpne	r2,r2,zero
 2000b44:	1000031e 	bne	r2,zero,2000b54 <failure_handler_task+0x2f0>
			OSSemPost(get_apps_task_failure_resolved_flag());
 2000b48:	20008180 	call	2000818 <get_apps_task_failure_resolved_flag>
 2000b4c:	1009883a 	mov	r4,r2
 2000b50:	20157d80 	call	20157d8 <OSSemPost>
		if(OSSemAccept(get_solenoid_task_failure_resolved_flag()) == SEM_FLAG_ERROR_UNRESOLVED)
 2000b54:	20017e80 	call	20017e8 <get_solenoid_task_failure_resolved_flag>
 2000b58:	1009883a 	mov	r4,r2
 2000b5c:	2014f6c0 	call	2014f6c <OSSemAccept>
 2000b60:	10bfffcc 	andi	r2,r2,65535
 2000b64:	1004c03a 	cmpne	r2,r2,zero
 2000b68:	1000031e 	bne	r2,zero,2000b78 <failure_handler_task+0x314>
			OSSemPost(get_solenoid_task_failure_resolved_flag());
 2000b6c:	20017e80 	call	20017e8 <get_solenoid_task_failure_resolved_flag>
 2000b70:	1009883a 	mov	r4,r2
 2000b74:	20157d80 	call	20157d8 <OSSemPost>
		OSTimeDlyHMSM(FAILURE_HANDLER_TASK_DELAY_HOURS,
 2000b78:	0009883a 	mov	r4,zero
 2000b7c:	000b883a 	mov	r5,zero
 2000b80:	000d883a 	mov	r6,zero
 2000b84:	01c01904 	movi	r7,100
 2000b88:	20176c00 	call	20176c0 <OSTimeDlyHMSM>
				FAILURE_HANDLER_TASK_DELAY_MINUTES,
				FAILURE_HANDLER_TASK_DELAY_SECONDS,
				FAILURE_HANDLER_TASK_DELAY_MILLISEC);
	}
 2000b8c:	003f4606 	br	20008a8 <failure_handler_task+0x44>

02000b90 <main>:
OS_EVENT *failure_code_q;

INT8U failure_code_buf[FAILURE_HANDLER_Q_SIZE_ELEMENTS];

/* The main function */
int main(void) {
 2000b90:	defff904 	addi	sp,sp,-28
 2000b94:	dfc00615 	stw	ra,24(sp)
 2000b98:	df000515 	stw	fp,20(sp)
 2000b9c:	df000504 	addi	fp,sp,20

	adc = alt_up_de0_nano_adc_open_dev(DE0_NANO_ADC_0_NAME);
 2000ba0:	010080b4 	movhi	r4,514
 2000ba4:	2128b304 	addi	r4,r4,-23860
 2000ba8:	2018a840 	call	2018a84 <alt_up_de0_nano_adc_open_dev>
 2000bac:	d0a70615 	stw	r2,-25576(gp)

	failure_code_q = OSQCreate((void*) failure_code_buf,
 2000bb0:	010080b4 	movhi	r4,514
 2000bb4:	2110a904 	addi	r4,r4,17060
 2000bb8:	01404004 	movi	r5,256
 2000bbc:	2013d8c0 	call	2013d8c <OSQCreate>
 2000bc0:	d0a70a15 	stw	r2,-25560(gp)
			FAILURE_HANDLER_Q_SIZE_ELEMENTS);
	printf("alive\n");
 2000bc4:	010080b4 	movhi	r4,514
 2000bc8:	2128b804 	addi	r4,r4,-23840
 2000bcc:	20047a40 	call	20047a4 <puts>

#if defined(RUN_UNIT_TESTS)
	printf("%d tests failed\n", run_all_unit_tests());
#endif

	throttle_data_init();
 2000bd0:	2002a780 	call	2002a78 <throttle_data_init>

	TEST_PWM(3125, 56);
 2000bd4:	01030d44 	movi	r4,3125
 2000bd8:	01400e04 	movi	r5,56
 2000bdc:	2002a0c0 	call	2002a0c <Test_pwm_gen>

	OSTaskCreateExt(failure_handler_task, NULL,
 2000be0:	018080b4 	movhi	r6,514
 2000be4:	3188a804 	addi	r6,r6,8864
 2000be8:	00800044 	movi	r2,1
 2000bec:	d8800015 	stw	r2,0(sp)
 2000bf0:	008080b4 	movhi	r2,514
 2000bf4:	1080a904 	addi	r2,r2,676
 2000bf8:	d8800115 	stw	r2,4(sp)
 2000bfc:	00820004 	movi	r2,2048
 2000c00:	d8800215 	stw	r2,8(sp)
 2000c04:	d8000315 	stw	zero,12(sp)
 2000c08:	d8000415 	stw	zero,16(sp)
 2000c0c:	01008034 	movhi	r4,512
 2000c10:	21021904 	addi	r4,r4,2148
 2000c14:	000b883a 	mov	r5,zero
 2000c18:	01c00044 	movi	r7,1
 2000c1c:	201627c0 	call	201627c <OSTaskCreateExt>

//	OSTaskCreateExt(motor_control_task, NULL, (void *) &motor_control_task_stk[TASK_STACKSIZE - 1],
//			MOTOR_CONTROL_TASK_PRIORITY, MOTOR_CONTROL_TASK_PRIORITY, motor_control_task_stk, TASK_STACKSIZE,
//			NULL, 0);
//
	OSTaskCreateExt(apps_task, NULL,
 2000c20:	018080b4 	movhi	r6,514
 2000c24:	3190a804 	addi	r6,r6,17056
 2000c28:	008000c4 	movi	r2,3
 2000c2c:	d8800015 	stw	r2,0(sp)
 2000c30:	008080b4 	movhi	r2,514
 2000c34:	1088a904 	addi	r2,r2,8868
 2000c38:	d8800115 	stw	r2,4(sp)
 2000c3c:	00820004 	movi	r2,2048
 2000c40:	d8800215 	stw	r2,8(sp)
 2000c44:	d8000315 	stw	zero,12(sp)
 2000c48:	d8000415 	stw	zero,16(sp)
 2000c4c:	01008034 	movhi	r4,512
 2000c50:	21009d04 	addi	r4,r4,628
 2000c54:	000b883a 	mov	r5,zero
 2000c58:	01c000c4 	movi	r7,3
 2000c5c:	201627c0 	call	201627c <OSTaskCreateExt>

//	OSTaskCreateExt(solenoid_task, NULL, (void *) &solenoid_task_stk[TASK_STACKSIZE - 1],
//			SOLENOID_TASK_PRIORITY, SOLENOID_TASK_PRIORITY, solenoid_task_stk, TASK_STACKSIZE,
//			NULL, 0);
//
	OSStart();
 2000c60:	20104a40 	call	20104a4 <OSStart>

	return 0;
 2000c64:	0005883a 	mov	r2,zero
}
 2000c68:	e037883a 	mov	sp,fp
 2000c6c:	dfc00117 	ldw	ra,4(sp)
 2000c70:	df000017 	ldw	fp,0(sp)
 2000c74:	dec00204 	addi	sp,sp,8
 2000c78:	f800283a 	ret

02000c7c <get_adc>:

/* Get ADC controller instance */
alt_up_de0_nano_adc_dev* get_adc() {
 2000c7c:	deffff04 	addi	sp,sp,-4
 2000c80:	df000015 	stw	fp,0(sp)
 2000c84:	d839883a 	mov	fp,sp
	return adc;
 2000c88:	d0a70617 	ldw	r2,-25576(gp)
}
 2000c8c:	e037883a 	mov	sp,fp
 2000c90:	df000017 	ldw	fp,0(sp)
 2000c94:	dec00104 	addi	sp,sp,4
 2000c98:	f800283a 	ret

02000c9c <disp_err>:

/* Display error message */
void disp_err(INT8U err, char *msg) {
 2000c9c:	defffc04 	addi	sp,sp,-16
 2000ca0:	dfc00315 	stw	ra,12(sp)
 2000ca4:	df000215 	stw	fp,8(sp)
 2000ca8:	df000204 	addi	fp,sp,8
 2000cac:	e17fff15 	stw	r5,-4(fp)
 2000cb0:	e13ffe05 	stb	r4,-8(fp)
	printf("%d:%s\n", err, msg);
 2000cb4:	e17ffe03 	ldbu	r5,-8(fp)
 2000cb8:	010080b4 	movhi	r4,514
 2000cbc:	2128ba04 	addi	r4,r4,-23832
 2000cc0:	e1bfff17 	ldw	r6,-4(fp)
 2000cc4:	200468c0 	call	200468c <printf>
}
 2000cc8:	e037883a 	mov	sp,fp
 2000ccc:	dfc00117 	ldw	ra,4(sp)
 2000cd0:	df000017 	ldw	fp,0(sp)
 2000cd4:	dec00204 	addi	sp,sp,8
 2000cd8:	f800283a 	ret

02000cdc <get_failure_msg_q>:

/* Getter for failure_message Q for every other task to use */
OS_EVENT* get_failure_msg_q() {
 2000cdc:	deffff04 	addi	sp,sp,-4
 2000ce0:	df000015 	stw	fp,0(sp)
 2000ce4:	d839883a 	mov	fp,sp
	return failure_code_q;
 2000ce8:	d0a70a17 	ldw	r2,-25560(gp)
}
 2000cec:	e037883a 	mov	sp,fp
 2000cf0:	df000017 	ldw	fp,0(sp)
 2000cf4:	dec00104 	addi	sp,sp,4
 2000cf8:	f800283a 	ret

02000cfc <post_new_request>:

alt_alarm* watchdog;

alt_alarm* tps_check_alarm;

OS_EVENT* post_new_request(motor_control_request* req){
 2000cfc:	defffd04 	addi	sp,sp,-12
 2000d00:	dfc00215 	stw	ra,8(sp)
 2000d04:	df000115 	stw	fp,4(sp)
 2000d08:	df000104 	addi	fp,sp,4
 2000d0c:	e13fff15 	stw	r4,-4(fp)
	OSQPost(request_q, req);
 2000d10:	d1270c17 	ldw	r4,-25552(gp)
 2000d14:	e17fff17 	ldw	r5,-4(fp)
 2000d18:	20148040 	call	2014804 <OSQPost>
	return request_q;
 2000d1c:	d0a70c17 	ldw	r2,-25552(gp)
}
 2000d20:	e037883a 	mov	sp,fp
 2000d24:	dfc00117 	ldw	ra,4(sp)
 2000d28:	df000017 	ldw	fp,0(sp)
 2000d2c:	dec00204 	addi	sp,sp,8
 2000d30:	f800283a 	ret

02000d34 <increase_throttle>:

void increase_throttle(pwm_gen_module* pwm){
 2000d34:	defffd04 	addi	sp,sp,-12
 2000d38:	dfc00215 	stw	ra,8(sp)
 2000d3c:	df000115 	stw	fp,4(sp)
 2000d40:	df000104 	addi	fp,sp,4
 2000d44:	e13fff15 	stw	r4,-4(fp)
	set_duty_cycle(pwm, MOTOR_PWM_DUTY_CYCLE_CCW);
 2000d48:	e13fff17 	ldw	r4,-4(fp)
 2000d4c:	000b883a 	mov	r5,zero
 2000d50:	200130c0 	call	200130c <set_duty_cycle>
}
 2000d54:	e037883a 	mov	sp,fp
 2000d58:	dfc00117 	ldw	ra,4(sp)
 2000d5c:	df000017 	ldw	fp,0(sp)
 2000d60:	dec00204 	addi	sp,sp,8
 2000d64:	f800283a 	ret

02000d68 <decrease_throttle>:

void decrease_throttle(pwm_gen_module* pwm){
 2000d68:	defffd04 	addi	sp,sp,-12
 2000d6c:	dfc00215 	stw	ra,8(sp)
 2000d70:	df000115 	stw	fp,4(sp)
 2000d74:	df000104 	addi	fp,sp,4
 2000d78:	e13fff15 	stw	r4,-4(fp)
	set_duty_cycle(pwm, MOTOR_PWM_DUTY_CYCLE_CW);
 2000d7c:	e13fff17 	ldw	r4,-4(fp)
 2000d80:	01401904 	movi	r5,100
 2000d84:	200130c0 	call	200130c <set_duty_cycle>
}
 2000d88:	e037883a 	mov	sp,fp
 2000d8c:	dfc00117 	ldw	ra,4(sp)
 2000d90:	df000017 	ldw	fp,0(sp)
 2000d94:	dec00204 	addi	sp,sp,8
 2000d98:	f800283a 	ret

02000d9c <hold_throttle>:

void hold_throttle(pwm_gen_module* pwm){
 2000d9c:	defffd04 	addi	sp,sp,-12
 2000da0:	dfc00215 	stw	ra,8(sp)
 2000da4:	df000115 	stw	fp,4(sp)
 2000da8:	df000104 	addi	fp,sp,4
 2000dac:	e13fff15 	stw	r4,-4(fp)
	set_duty_cycle(pwm, MOTOR_PWM_DUTY_CYCLE_IDLE);
 2000db0:	e13fff17 	ldw	r4,-4(fp)
 2000db4:	01400c84 	movi	r5,50
 2000db8:	200130c0 	call	200130c <set_duty_cycle>
}
 2000dbc:	e037883a 	mov	sp,fp
 2000dc0:	dfc00117 	ldw	ra,4(sp)
 2000dc4:	df000017 	ldw	fp,0(sp)
 2000dc8:	dec00204 	addi	sp,sp,8
 2000dcc:	f800283a 	ret

02000dd0 <watchdog_callback>:

alt_u32 watchdog_callback(void* context){
 2000dd0:	defffd04 	addi	sp,sp,-12
 2000dd4:	dfc00215 	stw	ra,8(sp)
 2000dd8:	df000115 	stw	fp,4(sp)
 2000ddc:	df000104 	addi	fp,sp,4
 2000de0:	e13fff15 	stw	r4,-4(fp)
	free(watchdog);
 2000de4:	d1270b17 	ldw	r4,-25556(gp)
 2000de8:	2003d0c0 	call	2003d0c <free>
	timeout_failure_encountered = TRUE;
 2000dec:	00bfffc4 	movi	r2,-1
 2000df0:	d0a00005 	stb	r2,-32768(gp)
	return 0;
 2000df4:	0005883a 	mov	r2,zero
}
 2000df8:	e037883a 	mov	sp,fp
 2000dfc:	dfc00117 	ldw	ra,4(sp)
 2000e00:	df000017 	ldw	fp,0(sp)
 2000e04:	dec00204 	addi	sp,sp,8
 2000e08:	f800283a 	ret

02000e0c <tps_value_comp_callback>:

/* Callback function to check TPS agreement position */
alt_u32 tps_value_comp_callback(void* context){
 2000e0c:	defffb04 	addi	sp,sp,-20
 2000e10:	dfc00415 	stw	ra,16(sp)
 2000e14:	df000315 	stw	fp,12(sp)
 2000e18:	df000304 	addi	fp,sp,12
 2000e1c:	e13fff15 	stw	r4,-4(fp)
	alt_up_de0_nano_adc_update(adc);
 2000e20:	d0a70617 	ldw	r2,-25576(gp)
 2000e24:	10800a17 	ldw	r2,40(r2)
 2000e28:	10000035 	stwio	zero,0(r2)
	INT32U tps_1_reading = alt_up_de0_nano_adc_read(adc, TPS_1_ADC_CHANNEL);
 2000e2c:	d1270617 	ldw	r4,-25576(gp)
 2000e30:	01400084 	movi	r5,2
 2000e34:	2018ac40 	call	2018ac4 <alt_up_de0_nano_adc_read>
 2000e38:	e0bffe15 	stw	r2,-8(fp)
	INT32U tps_2_reading = alt_up_de0_nano_adc_read(adc, TPS_2_ADC_CHANNEL);
 2000e3c:	d1270617 	ldw	r4,-25576(gp)
 2000e40:	014000c4 	movi	r5,3
 2000e44:	2018ac40 	call	2018ac4 <alt_up_de0_nano_adc_read>
 2000e48:	e0bffd15 	stw	r2,-12(fp)
	if (TPS_VALUE_MISMATCH(tps_1_reading, tps_2_reading)) {
 2000e4c:	e13ffe17 	ldw	r4,-8(fp)
 2000e50:	e17ffd17 	ldw	r5,-12(fp)
 2000e54:	01800284 	movi	r6,10
 2000e58:	01c003f4 	movhi	r7,15
 2000e5c:	39d09004 	addi	r7,r7,16960
 2000e60:	2002ddc0 	call	2002ddc <int32U_differ_by_percent>
 2000e64:	10803fcc 	andi	r2,r2,255
 2000e68:	1005003a 	cmpeq	r2,r2,zero
 2000e6c:	1000021e 	bne	r2,zero,2000e78 <tps_value_comp_callback+0x6c>
		tps_failure_encountered = TRUE;
 2000e70:	00bfffc4 	movi	r2,-1
 2000e74:	d0a00045 	stb	r2,-32767(gp)
	}
	free(tps_check_alarm);
 2000e78:	d1270d17 	ldw	r4,-25548(gp)
 2000e7c:	2003d0c0 	call	2003d0c <free>
	*(BOOL*)context = FALSE;
 2000e80:	e0bfff17 	ldw	r2,-4(fp)
 2000e84:	10000005 	stb	zero,0(r2)
	return 0;
 2000e88:	0005883a 	mov	r2,zero
}
 2000e8c:	e037883a 	mov	sp,fp
 2000e90:	dfc00117 	ldw	ra,4(sp)
 2000e94:	df000017 	ldw	fp,0(sp)
 2000e98:	dec00204 	addi	sp,sp,8
 2000e9c:	f800283a 	ret

02000ea0 <motor_control_task>:

void motor_control_task(void* pdata) {
 2000ea0:	defff304 	addi	sp,sp,-52
 2000ea4:	dfc00c15 	stw	ra,48(sp)
 2000ea8:	df000b15 	stw	fp,44(sp)
 2000eac:	df000b04 	addi	fp,sp,44
 2000eb0:	e13fff15 	stw	r4,-4(fp)
	INT8U err;
	adc = get_adc();
 2000eb4:	2000c7c0 	call	2000c7c <get_adc>
 2000eb8:	d0a70615 	stw	r2,-25576(gp)
	request_q = OSQCreate((void*) request_q_buf, REQUEST_Q_SIZE_ELEMENTS);
 2000ebc:	010080b4 	movhi	r4,514
 2000ec0:	21192904 	addi	r4,r4,25764
 2000ec4:	01404004 	movi	r5,256
 2000ec8:	2013d8c0 	call	2013d8c <OSQCreate>
 2000ecc:	d0a70c15 	stw	r2,-25552(gp)
	req_result_q = OSQCreate((void*) result_q_buf, RESULT_Q_SIZE_ELEMENTS);
 2000ed0:	010080b4 	movhi	r4,514
 2000ed4:	2118e904 	addi	r4,r4,25508
 2000ed8:	01404004 	movi	r5,256
 2000edc:	2013d8c0 	call	2013d8c <OSQCreate>
 2000ee0:	d0a70e15 	stw	r2,-25544(gp)
	BOOL serving_request = FALSE;
 2000ee4:	e03ffe05 	stb	zero,-8(fp)
	BOOL tps_check_timer_activated = FALSE;
 2000ee8:	e03ffe85 	stb	zero,-6(fp)
	INT16U expected_pos = 0;
 2000eec:	e03ffd8d 	sth	zero,-10(fp)
	INT16U expected_rpm = 0;
 2000ef0:	e03ffd0d 	sth	zero,-12(fp)
	motor_control_request* req;
	pwm_gen_module* pwm = get_new_pwm_module(PWM_GENERATOR_MOTOR_AVALON_SLAVE_PERIOD_BASE, PWM_GENERATOR_MOTOR_AVALON_SLAVE_DUTY_BASE, PWM_GENERATOR_MOTOR_AVALON_SLAVE_CONTROL_BASE, MOTOR_PWM_PERIOD_TICKS, MOTOR_PWM_DUTY_CYCLE_IDLE);
 2000ef4:	00800c84 	movi	r2,50
 2000ef8:	d8800015 	stw	r2,0(sp)
 2000efc:	01010074 	movhi	r4,1025
 2000f00:	21243904 	addi	r4,r4,-28444
 2000f04:	01410074 	movhi	r5,1025
 2000f08:	29643804 	addi	r5,r5,-28448
 2000f0c:	01810074 	movhi	r6,1025
 2000f10:	31a43a44 	addi	r6,r6,-28439
 2000f14:	01c30d44 	movi	r7,3125
 2000f18:	20013780 	call	2001378 <get_new_pwm_module>
 2000f1c:	e0bffb15 	stw	r2,-20(fp)
	enable_pwm_output(pwm);
 2000f20:	e13ffb17 	ldw	r4,-20(fp)
 2000f24:	20012400 	call	2001240 <enable_pwm_output>
	pwm_gen_module* pwm_tps_out = get_tps_sensor_output_pwm();
 2000f28:	2002f580 	call	2002f58 <get_tps_sensor_output_pwm>
 2000f2c:	e0bffa15 	stw	r2,-24(fp)
	enable_pwm_output(pwm_tps_out);
 2000f30:	e13ffa17 	ldw	r4,-24(fp)
 2000f34:	20012400 	call	2001240 <enable_pwm_output>
	INT16U* result_code = 0;
 2000f38:	e03ff915 	stw	zero,-28(fp)
 2000f3c:	00000006 	br	2000f40 <motor_control_task+0xa0>
	while(1){
		if(serving_request == FALSE){
 2000f40:	e0bffe03 	ldbu	r2,-8(fp)
 2000f44:	1004c03a 	cmpne	r2,r2,zero
 2000f48:	10002f1e 	bne	r2,zero,2001008 <motor_control_task+0x168>
			req = OSQPend(request_q, Q_TIMEOUT_WAIT_FOREVER, &err);
 2000f4c:	d1270c17 	ldw	r4,-25552(gp)
 2000f50:	e1bffe44 	addi	r6,fp,-7
 2000f54:	000b883a 	mov	r5,zero
 2000f58:	20143680 	call	2014368 <OSQPend>
 2000f5c:	e0bffc15 	stw	r2,-16(fp)
			watchdog = malloc(sizeof(alt_alarm));
 2000f60:	01000604 	movi	r4,24
 2000f64:	2003d200 	call	2003d20 <malloc>
 2000f68:	d0a70b15 	stw	r2,-25556(gp)
			if(req != NULL && req->request_type == MOTOR_CONTROL_REQ_TPS_POS){
 2000f6c:	e0bffc17 	ldw	r2,-16(fp)
 2000f70:	1005003a 	cmpeq	r2,r2,zero
 2000f74:	1000111e 	bne	r2,zero,2000fbc <motor_control_task+0x11c>
 2000f78:	e0bffc17 	ldw	r2,-16(fp)
 2000f7c:	10800103 	ldbu	r2,4(r2)
 2000f80:	10803fcc 	andi	r2,r2,255
 2000f84:	1004c03a 	cmpne	r2,r2,zero
 2000f88:	10000c1e 	bne	r2,zero,2000fbc <motor_control_task+0x11c>
				serving_request = TRUE;
 2000f8c:	00bfffc4 	movi	r2,-1
 2000f90:	e0bffe05 	stb	r2,-8(fp)
				expected_pos = req->value;
 2000f94:	e0bffc17 	ldw	r2,-16(fp)
 2000f98:	10800017 	ldw	r2,0(r2)
 2000f9c:	e0bffd8d 	sth	r2,-10(fp)
				alt_alarm_start(watchdog, MOTOR_DRIVE_DELAY_TICKS, &watchdog_callback, NULL);
 2000fa0:	d1270b17 	ldw	r4,-25556(gp)
 2000fa4:	0140fa04 	movi	r5,1000
 2000fa8:	01808034 	movhi	r6,512
 2000fac:	31837404 	addi	r6,r6,3536
 2000fb0:	000f883a 	mov	r7,zero
 2000fb4:	200e3480 	call	200e348 <alt_alarm_start>
	INT16U* result_code = 0;
	while(1){
		if(serving_request == FALSE){
			req = OSQPend(request_q, Q_TIMEOUT_WAIT_FOREVER, &err);
			watchdog = malloc(sizeof(alt_alarm));
			if(req != NULL && req->request_type == MOTOR_CONTROL_REQ_TPS_POS){
 2000fb8:	00001306 	br	2001008 <motor_control_task+0x168>
				serving_request = TRUE;
				expected_pos = req->value;
				alt_alarm_start(watchdog, MOTOR_DRIVE_DELAY_TICKS, &watchdog_callback, NULL);
			}else if(req != NULL && req->request_type == MOTOR_CONTROL_REQ_RPM){
 2000fbc:	e0bffc17 	ldw	r2,-16(fp)
 2000fc0:	1005003a 	cmpeq	r2,r2,zero
 2000fc4:	1000101e 	bne	r2,zero,2001008 <motor_control_task+0x168>
 2000fc8:	e0bffc17 	ldw	r2,-16(fp)
 2000fcc:	10800103 	ldbu	r2,4(r2)
 2000fd0:	10803fcc 	andi	r2,r2,255
 2000fd4:	10800058 	cmpnei	r2,r2,1
 2000fd8:	10000b1e 	bne	r2,zero,2001008 <motor_control_task+0x168>
				serving_request = TRUE;
 2000fdc:	00bfffc4 	movi	r2,-1
 2000fe0:	e0bffe05 	stb	r2,-8(fp)
				expected_rpm = req->value;
 2000fe4:	e0bffc17 	ldw	r2,-16(fp)
 2000fe8:	10800017 	ldw	r2,0(r2)
 2000fec:	e0bffd0d 	sth	r2,-12(fp)
				alt_alarm_start(watchdog, MOTOR_RPM_DRIVE_DELAY_TICKS, &watchdog_callback, NULL);
 2000ff0:	d1270b17 	ldw	r4,-25556(gp)
 2000ff4:	0141f404 	movi	r5,2000
 2000ff8:	01808034 	movhi	r6,512
 2000ffc:	31837404 	addi	r6,r6,3536
 2001000:	000f883a 	mov	r7,zero
 2001004:	200e3480 	call	200e348 <alt_alarm_start>
			}
		}
		if(timeout_failure_encountered == TRUE){
 2001008:	d0a00003 	ldbu	r2,-32768(gp)
 200100c:	10803fcc 	andi	r2,r2,255
 2001010:	10803fd8 	cmpnei	r2,r2,255
 2001014:	1000081e 	bne	r2,zero,2001038 <motor_control_task+0x198>
			serving_request = FALSE;
 2001018:	e03ffe05 	stb	zero,-8(fp)
			*result_code = REQUEST_RESULT_FAIL_TIMEOUT;
 200101c:	e0bff917 	ldw	r2,-28(fp)
 2001020:	00c00044 	movi	r3,1
 2001024:	10c0000d 	sth	r3,0(r2)
			OSQPost(req_result_q, (void*)result_code);
 2001028:	d1270e17 	ldw	r4,-25544(gp)
 200102c:	e17ff917 	ldw	r5,-28(fp)
 2001030:	20148040 	call	2014804 <OSQPost>
			continue;
 2001034:	003fc206 	br	2000f40 <motor_control_task+0xa0>
		}else if(tps_failure_encountered == TRUE){
 2001038:	d0a00043 	ldbu	r2,-32767(gp)
 200103c:	10803fcc 	andi	r2,r2,255
 2001040:	10803fd8 	cmpnei	r2,r2,255
 2001044:	1000081e 	bne	r2,zero,2001068 <motor_control_task+0x1c8>
			serving_request = FALSE;
 2001048:	e03ffe05 	stb	zero,-8(fp)
			*result_code = REQUEST_RESULT_FAIL_TPS;
 200104c:	e0bff917 	ldw	r2,-28(fp)
 2001050:	00c00084 	movi	r3,2
 2001054:	10c0000d 	sth	r3,0(r2)
			OSQPost(req_result_q, (void*)result_code);
 2001058:	d1270e17 	ldw	r4,-25544(gp)
 200105c:	e17ff917 	ldw	r5,-28(fp)
 2001060:	20148040 	call	2014804 <OSQPost>
			continue;
 2001064:	003fb606 	br	2000f40 <motor_control_task+0xa0>
		}
		alt_up_de0_nano_adc_update(adc);
 2001068:	d0a70617 	ldw	r2,-25576(gp)
 200106c:	10800a17 	ldw	r2,40(r2)
 2001070:	10000035 	stwio	zero,0(r2)
		if(req != NULL && req->request_type == MOTOR_CONTROL_REQ_TPS_POS){
 2001074:	e0bffc17 	ldw	r2,-16(fp)
 2001078:	1005003a 	cmpeq	r2,r2,zero
 200107c:	1000461e 	bne	r2,zero,2001198 <motor_control_task+0x2f8>
 2001080:	e0bffc17 	ldw	r2,-16(fp)
 2001084:	10800103 	ldbu	r2,4(r2)
 2001088:	10803fcc 	andi	r2,r2,255
 200108c:	1004c03a 	cmpne	r2,r2,zero
 2001090:	1000411e 	bne	r2,zero,2001198 <motor_control_task+0x2f8>
			INT16U tps_1_reading = alt_up_de0_nano_adc_read(adc, TPS_1_ADC_CHANNEL);
 2001094:	d1270617 	ldw	r4,-25576(gp)
 2001098:	01400084 	movi	r5,2
 200109c:	2018ac40 	call	2018ac4 <alt_up_de0_nano_adc_read>
 20010a0:	e0bff88d 	sth	r2,-30(fp)
			INT16U tps_2_reading = alt_up_de0_nano_adc_read(adc, TPS_2_ADC_CHANNEL);
 20010a4:	d1270617 	ldw	r4,-25576(gp)
 20010a8:	014000c4 	movi	r5,3
 20010ac:	2018ac40 	call	2018ac4 <alt_up_de0_nano_adc_read>
 20010b0:	e0bff80d 	sth	r2,-32(fp)
			if (TPS_VALUE_MISMATCH(tps_1_reading, tps_2_reading)) {
 20010b4:	e13ff88b 	ldhu	r4,-30(fp)
 20010b8:	e17ff80b 	ldhu	r5,-32(fp)
 20010bc:	01800284 	movi	r6,10
 20010c0:	01c003f4 	movhi	r7,15
 20010c4:	39d09004 	addi	r7,r7,16960
 20010c8:	2002ddc0 	call	2002ddc <int32U_differ_by_percent>
 20010cc:	10803fcc 	andi	r2,r2,255
 20010d0:	1005003a 	cmpeq	r2,r2,zero
 20010d4:	10000d1e 	bne	r2,zero,200110c <motor_control_task+0x26c>
				if(tps_check_timer_activated == FALSE){
 20010d8:	e0bffe83 	ldbu	r2,-6(fp)
 20010dc:	10803fcc 	andi	r2,r2,255
 20010e0:	1004c03a 	cmpne	r2,r2,zero
 20010e4:	1000091e 	bne	r2,zero,200110c <motor_control_task+0x26c>
					tps_check_alarm = (alt_alarm*) malloc(sizeof(alt_alarm));
 20010e8:	01000604 	movi	r4,24
 20010ec:	2003d200 	call	2003d20 <malloc>
 20010f0:	d0a70d15 	stw	r2,-25548(gp)
					alt_alarm_start(tps_check_alarm, SENSOR_VAL_COMP_DELAY_TICKS, &tps_value_comp_callback, &tps_check_timer_activated);
 20010f4:	d1270d17 	ldw	r4,-25548(gp)
 20010f8:	e1fffe84 	addi	r7,fp,-6
 20010fc:	01401904 	movi	r5,100
 2001100:	01808034 	movhi	r6,512
 2001104:	31838304 	addi	r6,r6,3596
 2001108:	200e3480 	call	200e348 <alt_alarm_start>
				}
			}
			INT32U avg_tps_reading = (tps_1_reading + tps_2_reading)/2;
 200110c:	e0fff88b 	ldhu	r3,-30(fp)
 2001110:	e0bff80b 	ldhu	r2,-32(fp)
 2001114:	1887883a 	add	r3,r3,r2
 2001118:	1804d7fa 	srli	r2,r3,31
 200111c:	10c5883a 	add	r2,r2,r3
 2001120:	1005d07a 	srai	r2,r2,1
 2001124:	e0bff715 	stw	r2,-36(fp)
			set_tps_sensor_output(pwm_tps_out, avg_tps_reading);
 2001128:	e13ffa17 	ldw	r4,-24(fp)
 200112c:	e17ff717 	ldw	r5,-36(fp)
 2001130:	2002fa00 	call	2002fa0 <set_tps_sensor_output>
			if(FALSE == TPS_VALUE_DIFFER_FROM_EXPECTED(avg_tps_reading, expected_pos)){
 2001134:	e17ffd8b 	ldhu	r5,-10(fp)
 2001138:	e13ff717 	ldw	r4,-36(fp)
 200113c:	01802584 	movi	r6,150
 2001140:	2002d540 	call	2002d54 <int32U_changed_by_threshold>
 2001144:	10803fcc 	andi	r2,r2,255
 2001148:	1004c03a 	cmpne	r2,r2,zero
 200114c:	1000091e 	bne	r2,zero,2001174 <motor_control_task+0x2d4>
				hold_throttle(pwm);
 2001150:	e13ffb17 	ldw	r4,-20(fp)
 2001154:	2000d9c0 	call	2000d9c <hold_throttle>
				serving_request = FALSE;
 2001158:	e03ffe05 	stb	zero,-8(fp)
				*result_code = REQUEST_RESULT_OK;
 200115c:	e0bff917 	ldw	r2,-28(fp)
 2001160:	1000000d 	sth	zero,0(r2)
				OSQPost(req_result_q, (void*)result_code);
 2001164:	d1270e17 	ldw	r4,-25544(gp)
 2001168:	e17ff917 	ldw	r5,-28(fp)
 200116c:	20148040 	call	2014804 <OSQPost>
 2001170:	00002d06 	br	2001228 <motor_control_task+0x388>
			}else if(avg_tps_reading > expected_pos){
 2001174:	e0fffd8b 	ldhu	r3,-10(fp)
 2001178:	e0bff717 	ldw	r2,-36(fp)
 200117c:	1880032e 	bgeu	r3,r2,200118c <motor_control_task+0x2ec>
				decrease_throttle(pwm);
 2001180:	e13ffb17 	ldw	r4,-20(fp)
 2001184:	2000d680 	call	2000d68 <decrease_throttle>
 2001188:	00002706 	br	2001228 <motor_control_task+0x388>
			}else{
				increase_throttle(pwm);
 200118c:	e13ffb17 	ldw	r4,-20(fp)
 2001190:	2000d340 	call	2000d34 <increase_throttle>
			*result_code = REQUEST_RESULT_FAIL_TPS;
			OSQPost(req_result_q, (void*)result_code);
			continue;
		}
		alt_up_de0_nano_adc_update(adc);
		if(req != NULL && req->request_type == MOTOR_CONTROL_REQ_TPS_POS){
 2001194:	00002406 	br	2001228 <motor_control_task+0x388>
			}else if(avg_tps_reading > expected_pos){
				decrease_throttle(pwm);
			}else{
				increase_throttle(pwm);
			}
		}else if(req != NULL && req->request_type == MOTOR_CONTROL_REQ_RPM){
 2001198:	e0bffc17 	ldw	r2,-16(fp)
 200119c:	1005003a 	cmpeq	r2,r2,zero
 20011a0:	1000211e 	bne	r2,zero,2001228 <motor_control_task+0x388>
 20011a4:	e0bffc17 	ldw	r2,-16(fp)
 20011a8:	10800103 	ldbu	r2,4(r2)
 20011ac:	10803fcc 	andi	r2,r2,255
 20011b0:	10800058 	cmpnei	r2,r2,1
 20011b4:	10001c1e 	bne	r2,zero,2001228 <motor_control_task+0x388>
			INT16U rpm_reading = alt_up_de0_nano_adc_read(adc, RPM_ADC_CHANNEL);
 20011b8:	d1270617 	ldw	r4,-25576(gp)
 20011bc:	01400184 	movi	r5,6
 20011c0:	2018ac40 	call	2018ac4 <alt_up_de0_nano_adc_read>
 20011c4:	e0bff60d 	sth	r2,-40(fp)
			if(FALSE == RPM_VALUE_DIFFER_FROM_EXPECTED(rpm_reading, expected_rpm)){
 20011c8:	e13ff60b 	ldhu	r4,-40(fp)
 20011cc:	e17ffd0b 	ldhu	r5,-12(fp)
 20011d0:	01802584 	movi	r6,150
 20011d4:	2002d540 	call	2002d54 <int32U_changed_by_threshold>
 20011d8:	10803fcc 	andi	r2,r2,255
 20011dc:	1004c03a 	cmpne	r2,r2,zero
 20011e0:	1000091e 	bne	r2,zero,2001208 <motor_control_task+0x368>
				hold_throttle(pwm);
 20011e4:	e13ffb17 	ldw	r4,-20(fp)
 20011e8:	2000d9c0 	call	2000d9c <hold_throttle>
				serving_request = FALSE;
 20011ec:	e03ffe05 	stb	zero,-8(fp)
				*result_code = REQUEST_RESULT_OK;
 20011f0:	e0bff917 	ldw	r2,-28(fp)
 20011f4:	1000000d 	sth	zero,0(r2)
				OSQPost(req_result_q, (void*)result_code);
 20011f8:	d1270e17 	ldw	r4,-25544(gp)
 20011fc:	e17ff917 	ldw	r5,-28(fp)
 2001200:	20148040 	call	2014804 <OSQPost>
 2001204:	00000806 	br	2001228 <motor_control_task+0x388>
			}else if(rpm_reading > expected_rpm){
 2001208:	e0fff60b 	ldhu	r3,-40(fp)
 200120c:	e0bffd0b 	ldhu	r2,-12(fp)
 2001210:	10c0032e 	bgeu	r2,r3,2001220 <motor_control_task+0x380>
				decrease_throttle(pwm);
 2001214:	e13ffb17 	ldw	r4,-20(fp)
 2001218:	2000d680 	call	2000d68 <decrease_throttle>
 200121c:	00000206 	br	2001228 <motor_control_task+0x388>
			}else{
				increase_throttle(pwm);
 2001220:	e13ffb17 	ldw	r4,-20(fp)
 2001224:	2000d340 	call	2000d34 <increase_throttle>
			}
		}

		OSTimeDlyHMSM(MOTOR_CONTROL_TASK_DELAY_HOURS,
 2001228:	0009883a 	mov	r4,zero
 200122c:	000b883a 	mov	r5,zero
 2001230:	000d883a 	mov	r6,zero
 2001234:	000f883a 	mov	r7,zero
 2001238:	20176c00 	call	20176c0 <OSTimeDlyHMSM>
				MOTOR_CONTROL_TASK_DELAY_MINUTES, MOTOR_CONTROL_TASK_DELAY_SECONDS,
				MOTOR_CONTROL_TASK_DELAY_MILLISEC);
	}
 200123c:	003f4006 	br	2000f40 <motor_control_task+0xa0>

02001240 <enable_pwm_output>:
 *  Status: C
 */

#include "pwm_gen.h"

void enable_pwm_output(pwm_gen_module* module){
 2001240:	defffe04 	addi	sp,sp,-8
 2001244:	df000115 	stw	fp,4(sp)
 2001248:	df000104 	addi	fp,sp,4
 200124c:	e13fff15 	stw	r4,-4(fp)
	module->control = PWM_CONTROL_ENABLE_OUTPUT;
 2001250:	e0ffff17 	ldw	r3,-4(fp)
 2001254:	00800044 	movi	r2,1
 2001258:	18800505 	stb	r2,20(r3)
	*(INT8U*)module->control_base = module->control;
 200125c:	e0bfff17 	ldw	r2,-4(fp)
 2001260:	10800217 	ldw	r2,8(r2)
 2001264:	1007883a 	mov	r3,r2
 2001268:	e0bfff17 	ldw	r2,-4(fp)
 200126c:	10800503 	ldbu	r2,20(r2)
 2001270:	18800005 	stb	r2,0(r3)
}
 2001274:	e037883a 	mov	sp,fp
 2001278:	df000017 	ldw	fp,0(sp)
 200127c:	dec00104 	addi	sp,sp,4
 2001280:	f800283a 	ret

02001284 <disable_pwm_output>:

void disable_pwm_output(pwm_gen_module* module){
 2001284:	defffe04 	addi	sp,sp,-8
 2001288:	df000115 	stw	fp,4(sp)
 200128c:	df000104 	addi	fp,sp,4
 2001290:	e13fff15 	stw	r4,-4(fp)
	module->control = 0;
 2001294:	e0bfff17 	ldw	r2,-4(fp)
 2001298:	10000505 	stb	zero,20(r2)
	*(INT8U*)module->control_base = module->control;
 200129c:	e0bfff17 	ldw	r2,-4(fp)
 20012a0:	10800217 	ldw	r2,8(r2)
 20012a4:	1007883a 	mov	r3,r2
 20012a8:	e0bfff17 	ldw	r2,-4(fp)
 20012ac:	10800503 	ldbu	r2,20(r2)
 20012b0:	18800005 	stb	r2,0(r3)
}
 20012b4:	e037883a 	mov	sp,fp
 20012b8:	df000017 	ldw	fp,0(sp)
 20012bc:	dec00104 	addi	sp,sp,4
 20012c0:	f800283a 	ret

020012c4 <set_period>:

void set_period(pwm_gen_module* module, INT32U p){
 20012c4:	defffd04 	addi	sp,sp,-12
 20012c8:	df000215 	stw	fp,8(sp)
 20012cc:	df000204 	addi	fp,sp,8
 20012d0:	e13ffe15 	stw	r4,-8(fp)
 20012d4:	e17fff15 	stw	r5,-4(fp)
	module->period = p;
 20012d8:	e0fffe17 	ldw	r3,-8(fp)
 20012dc:	e0bfff17 	ldw	r2,-4(fp)
 20012e0:	18800315 	stw	r2,12(r3)
	*(INT32U*)module->period_base = module->period;
 20012e4:	e0bffe17 	ldw	r2,-8(fp)
 20012e8:	10800017 	ldw	r2,0(r2)
 20012ec:	1007883a 	mov	r3,r2
 20012f0:	e0bffe17 	ldw	r2,-8(fp)
 20012f4:	10800317 	ldw	r2,12(r2)
 20012f8:	18800015 	stw	r2,0(r3)
}
 20012fc:	e037883a 	mov	sp,fp
 2001300:	df000017 	ldw	fp,0(sp)
 2001304:	dec00104 	addi	sp,sp,4
 2001308:	f800283a 	ret

0200130c <set_duty_cycle>:

void set_duty_cycle(pwm_gen_module* module, INT8U percent){
 200130c:	defffc04 	addi	sp,sp,-16
 2001310:	dfc00315 	stw	ra,12(sp)
 2001314:	df000215 	stw	fp,8(sp)
 2001318:	df000204 	addi	fp,sp,8
 200131c:	e13ffe15 	stw	r4,-8(fp)
 2001320:	e17fff05 	stb	r5,-4(fp)
	module->duty = (INT32U) (module->period * percent / DUTY_SCALE_FACTOR);
 2001324:	e0bffe17 	ldw	r2,-8(fp)
 2001328:	11000317 	ldw	r4,12(r2)
 200132c:	e17fff03 	ldbu	r5,-4(fp)
 2001330:	20036dc0 	call	20036dc <__mulsi3>
 2001334:	1009883a 	mov	r4,r2
 2001338:	01401904 	movi	r5,100
 200133c:	20036cc0 	call	20036cc <__udivsi3>
 2001340:	1007883a 	mov	r3,r2
 2001344:	e0bffe17 	ldw	r2,-8(fp)
 2001348:	10c00415 	stw	r3,16(r2)
	*(INT32U*)module->duty_base = module->duty;
 200134c:	e0bffe17 	ldw	r2,-8(fp)
 2001350:	10800117 	ldw	r2,4(r2)
 2001354:	1007883a 	mov	r3,r2
 2001358:	e0bffe17 	ldw	r2,-8(fp)
 200135c:	10800417 	ldw	r2,16(r2)
 2001360:	18800015 	stw	r2,0(r3)
}
 2001364:	e037883a 	mov	sp,fp
 2001368:	dfc00117 	ldw	ra,4(sp)
 200136c:	df000017 	ldw	fp,0(sp)
 2001370:	dec00204 	addi	sp,sp,8
 2001374:	f800283a 	ret

02001378 <get_new_pwm_module>:

pwm_gen_module* get_new_pwm_module(INT32U p_base, INT32U d_base, INT32U c_base, INT32U p, INT8U d_cycle){
 2001378:	defff804 	addi	sp,sp,-32
 200137c:	dfc00715 	stw	ra,28(sp)
 2001380:	df000615 	stw	fp,24(sp)
 2001384:	df000604 	addi	fp,sp,24
 2001388:	e13ffb15 	stw	r4,-20(fp)
 200138c:	e17ffc15 	stw	r5,-16(fp)
 2001390:	e1bffd15 	stw	r6,-12(fp)
 2001394:	e1fffe15 	stw	r7,-8(fp)
 2001398:	e0800217 	ldw	r2,8(fp)
 200139c:	e0bfff05 	stb	r2,-4(fp)
	pwm_gen_module* ptr = (pwm_gen_module*) malloc(sizeof(pwm_gen_module));
 20013a0:	01000604 	movi	r4,24
 20013a4:	2003d200 	call	2003d20 <malloc>
 20013a8:	e0bffa15 	stw	r2,-24(fp)
	ptr->period_base = p_base;
 20013ac:	e0fffa17 	ldw	r3,-24(fp)
 20013b0:	e0bffb17 	ldw	r2,-20(fp)
 20013b4:	18800015 	stw	r2,0(r3)
	ptr->duty_base = d_base;
 20013b8:	e0fffa17 	ldw	r3,-24(fp)
 20013bc:	e0bffc17 	ldw	r2,-16(fp)
 20013c0:	18800115 	stw	r2,4(r3)
	ptr->control_base = c_base;
 20013c4:	e0fffa17 	ldw	r3,-24(fp)
 20013c8:	e0bffd17 	ldw	r2,-12(fp)
 20013cc:	18800215 	stw	r2,8(r3)
	disable_pwm_output(ptr);
 20013d0:	e13ffa17 	ldw	r4,-24(fp)
 20013d4:	20012840 	call	2001284 <disable_pwm_output>
	set_period(ptr, p);
 20013d8:	e13ffa17 	ldw	r4,-24(fp)
 20013dc:	e17ffe17 	ldw	r5,-8(fp)
 20013e0:	20012c40 	call	20012c4 <set_period>
	set_duty_cycle(ptr, d_cycle);
 20013e4:	e17fff03 	ldbu	r5,-4(fp)
 20013e8:	e13ffa17 	ldw	r4,-24(fp)
 20013ec:	200130c0 	call	200130c <set_duty_cycle>
	return ptr;
 20013f0:	e0bffa17 	ldw	r2,-24(fp)
}
 20013f4:	e037883a 	mov	sp,fp
 20013f8:	dfc00117 	ldw	ra,4(sp)
 20013fc:	df000017 	ldw	fp,0(sp)
 2001400:	dec00204 	addi	sp,sp,8
 2001404:	f800283a 	ret

02001408 <isr_btn>:
OS_EVENT 	*timer_active_flag;

alt_alarm   *alarm;

static void isr_btn (void* context, alt_u32 id)
{
 2001408:	defffb04 	addi	sp,sp,-20
 200140c:	dfc00415 	stw	ra,16(sp)
 2001410:	df000315 	stw	fp,12(sp)
 2001414:	df000304 	addi	fp,sp,12
 2001418:	e13ffe15 	stw	r4,-8(fp)
 200141c:	e17fff15 	stw	r5,-4(fp)
	static INT32U data = 0;
	data = IORD_ALTERA_AVALON_PIO_EDGE_CAP(BUTTONS_BASE);
 2001420:	00810074 	movhi	r2,1025
 2001424:	10a42304 	addi	r2,r2,-28532
 2001428:	10800037 	ldwio	r2,0(r2)
 200142c:	d0a70f15 	stw	r2,-25540(gp)
	//data = IORD_ALTERA_AVALON_PIO_DATA(BUTTONS_BASE);
	INT32U *ptr = &data;
 2001430:	d0a70f04 	addi	r2,gp,-25540
 2001434:	e0bffd15 	stw	r2,-12(fp)
	if(data == BUTTON_INPUT_SHIFT_UP){
 2001438:	d0a70f17 	ldw	r2,-25540(gp)
 200143c:	10800118 	cmpnei	r2,r2,4
 2001440:	1000041e 	bne	r2,zero,2001454 <isr_btn+0x4c>
		OSQPost(btn_input_q, (void*) ptr);
 2001444:	d1271417 	ldw	r4,-25520(gp)
 2001448:	e17ffd17 	ldw	r5,-12(fp)
 200144c:	20148040 	call	2014804 <OSQPost>
 2001450:	00000606 	br	200146c <isr_btn+0x64>
	}else if(data == BUTTON_INPUT_SHIFT_DOWN){
 2001454:	d0a70f17 	ldw	r2,-25540(gp)
 2001458:	10800218 	cmpnei	r2,r2,8
 200145c:	1000031e 	bne	r2,zero,200146c <isr_btn+0x64>
		OSQPost(btn_input_q, (void*) ptr);
 2001460:	d1271417 	ldw	r4,-25520(gp)
 2001464:	e17ffd17 	ldw	r5,-12(fp)
 2001468:	20148040 	call	2014804 <OSQPost>
	}
	IOWR_ALTERA_AVALON_PIO_EDGE_CAP(BUTTONS_BASE, CLEAR_BUTTON_EDGE_REG);
 200146c:	00810074 	movhi	r2,1025
 2001470:	10a42304 	addi	r2,r2,-28532
 2001474:	10000035 	stwio	zero,0(r2)
	IOWR_ALTERA_AVALON_PIO_IRQ_MASK(BUTTONS_BASE, BUTTON_INPUT_SHIFT_UP | BUTTON_INPUT_SHIFT_DOWN);
 2001478:	00c10074 	movhi	r3,1025
 200147c:	18e42204 	addi	r3,r3,-28536
 2001480:	00800304 	movi	r2,12
 2001484:	18800035 	stwio	r2,0(r3)

}
 2001488:	e037883a 	mov	sp,fp
 200148c:	dfc00117 	ldw	ra,4(sp)
 2001490:	df000017 	ldw	fp,0(sp)
 2001494:	dec00204 	addi	sp,sp,8
 2001498:	f800283a 	ret

0200149c <solenoid_task>:
void shift_up();

void shift_down();

/*  Task routine for solenoid */
void solenoid_task(void* pdata) {
 200149c:	defff704 	addi	sp,sp,-36
 20014a0:	dfc00815 	stw	ra,32(sp)
 20014a4:	df000715 	stw	fp,28(sp)
 20014a8:	df000704 	addi	fp,sp,28
 20014ac:	e13fff15 	stw	r4,-4(fp)

	INT8U err;

	btn_input_q = OSQCreate((void*)solenoid_buf, SOLENOID_Q_SIZE_ELEMENTS);
 20014b0:	010080b4 	movhi	r4,514
 20014b4:	21196904 	addi	r4,r4,26020
 20014b8:	01404004 	movi	r5,256
 20014bc:	2013d8c0 	call	2013d8c <OSQCreate>
 20014c0:	d0a71415 	stw	r2,-25520(gp)

	solenoid_external_failure_flag = OSSemCreate(SEM_FLAG_NO_ERROR);
 20014c4:	0009883a 	mov	r4,zero
 20014c8:	201502c0 	call	201502c <OSSemCreate>
 20014cc:	d0a71115 	stw	r2,-25532(gp)

	solenoid_failure_resolved_flag = OSSemCreate(SEM_FLAG_ERROR_UNRESOLVED);
 20014d0:	0009883a 	mov	r4,zero
 20014d4:	201502c0 	call	201502c <OSSemCreate>
 20014d8:	d0a71215 	stw	r2,-25528(gp)

	rpm_reached_flag = OSSemCreate(OS_SEM_RPM_NOT_REACHED);
 20014dc:	0009883a 	mov	r4,zero
 20014e0:	201502c0 	call	201502c <OSSemCreate>
 20014e4:	d0a71015 	stw	r2,-25536(gp)

	timer_active_flag = OSSemCreate(OS_SEM_FLAG_NOT_SHIFTING);
 20014e8:	01000044 	movi	r4,1
 20014ec:	201502c0 	call	201502c <OSSemCreate>
 20014f0:	d0a71615 	stw	r2,-25512(gp)

	OS_EVENT *shift_matching_q = get_motor_cmd_q();
 20014f4:	20006480 	call	2000648 <get_motor_cmd_q>
 20014f8:	e0bffd15 	stw	r2,-12(fp)

	INT8U curr_gear = 1;
 20014fc:	00800044 	movi	r2,1
 2001500:	e0bffc05 	stb	r2,-16(fp)

	IOWR_ALTERA_AVALON_PIO_IRQ_MASK(BUTTONS_BASE, BUTTON_INPUT_SHIFT_UP | BUTTON_INPUT_SHIFT_DOWN);
 2001504:	00c10074 	movhi	r3,1025
 2001508:	18e42204 	addi	r3,r3,-28536
 200150c:	00800304 	movi	r2,12
 2001510:	18800035 	stwio	r2,0(r3)
	IOWR_ALTERA_AVALON_PIO_EDGE_CAP(BUTTONS_BASE, CLEAR_BUTTON_EDGE_REG);
 2001514:	00810074 	movhi	r2,1025
 2001518:	10a42304 	addi	r2,r2,-28532
 200151c:	10000035 	stwio	zero,0(r2)
	alt_irq_register(BUTTONS_IRQ, NULL,  &isr_btn);
 2001520:	01000144 	movi	r4,5
 2001524:	000b883a 	mov	r5,zero
 2001528:	01808034 	movhi	r6,512
 200152c:	31850204 	addi	r6,r6,5128
 2001530:	200e7ec0 	call	200e7ec <alt_irq_register>
 2001534:	00000006 	br	2001538 <solenoid_task+0x9c>
	while(1){

#if defined(RUN_AVG_TASK_TIME_TEST)
		INT8U shift_command = BUTTON_INPUT_SHIFT_UP;
#else
		INT32U shift_command = *(INT32U *) OSQPend(btn_input_q, Q_TIMEOUT_WAIT_FOREVER, &err);
 2001538:	d1271417 	ldw	r4,-25520(gp)
 200153c:	e1bffe04 	addi	r6,fp,-8
 2001540:	000b883a 	mov	r5,zero
 2001544:	20143680 	call	2014368 <OSQPend>
 2001548:	10800017 	ldw	r2,0(r2)
 200154c:	e0bffb15 	stw	r2,-20(fp)
		if(OSSemAccept(solenoid_external_failure_flag) != SEM_FLAG_NO_ERROR){
 2001550:	d1271117 	ldw	r4,-25532(gp)
 2001554:	2014f6c0 	call	2014f6c <OSSemAccept>
 2001558:	10bfffcc 	andi	r2,r2,65535
 200155c:	1005003a 	cmpeq	r2,r2,zero
 2001560:	1000071e 	bne	r2,zero,2001580 <solenoid_task+0xe4>
			printf("External failure, block solenoid task\n");
 2001564:	010080b4 	movhi	r4,514
 2001568:	2128bc04 	addi	r4,r4,-23824
 200156c:	20047a40 	call	20047a4 <puts>
			OSSemPend(solenoid_failure_resolved_flag, Q_TIMEOUT_WAIT_FOREVER, &err);
 2001570:	d1271217 	ldw	r4,-25528(gp)
 2001574:	e1bffe04 	addi	r6,fp,-8
 2001578:	000b883a 	mov	r5,zero
 200157c:	20153e00 	call	20153e0 <OSSemPend>
		}
		printf("cmd:%d\n", shift_command);
 2001580:	010080b4 	movhi	r4,514
 2001584:	2128c604 	addi	r4,r4,-23784
 2001588:	e17ffb17 	ldw	r5,-20(fp)
 200158c:	200468c0 	call	200468c <printf>
		if (OSSemAccept(timer_active_flag) == OS_SEM_FLAG_SHIFTING){
 2001590:	d1271617 	ldw	r4,-25512(gp)
 2001594:	2014f6c0 	call	2014f6c <OSSemAccept>
 2001598:	10bfffcc 	andi	r2,r2,65535
 200159c:	1005003a 	cmpeq	r2,r2,zero
 20015a0:	103fe51e 	bne	r2,zero,2001538 <solenoid_task+0x9c>
			continue;
		}
		INT16U new_gear = curr_gear;
 20015a4:	e0bffc03 	ldbu	r2,-16(fp)
 20015a8:	e0bffa0d 	sth	r2,-24(fp)
		if(shift_command == BUTTON_INPUT_SHIFT_UP){
 20015ac:	e0bffb17 	ldw	r2,-20(fp)
 20015b0:	10800118 	cmpnei	r2,r2,4
 20015b4:	1000071e 	bne	r2,zero,20015d4 <solenoid_task+0x138>
			if(curr_gear == NUM_GEARS)
 20015b8:	e0bffc03 	ldbu	r2,-16(fp)
 20015bc:	10800120 	cmpeqi	r2,r2,4
 20015c0:	103fdd1e 	bne	r2,zero,2001538 <solenoid_task+0x9c>
				continue;
			new_gear++;
 20015c4:	e0bffa0b 	ldhu	r2,-24(fp)
 20015c8:	10800044 	addi	r2,r2,1
 20015cc:	e0bffa0d 	sth	r2,-24(fp)
 20015d0:	00000906 	br	20015f8 <solenoid_task+0x15c>
		}else if (shift_command == BUTTON_INPUT_SHIFT_DOWN){
 20015d4:	e0bffb17 	ldw	r2,-20(fp)
 20015d8:	10800218 	cmpnei	r2,r2,8
 20015dc:	1000061e 	bne	r2,zero,20015f8 <solenoid_task+0x15c>
			if(curr_gear == 1)
 20015e0:	e0bffc03 	ldbu	r2,-16(fp)
 20015e4:	10800060 	cmpeqi	r2,r2,1
 20015e8:	103fd31e 	bne	r2,zero,2001538 <solenoid_task+0x9c>
				continue;
			new_gear--;
 20015ec:	e0bffa0b 	ldhu	r2,-24(fp)
 20015f0:	10bfffc4 	addi	r2,r2,-1
 20015f4:	e0bffa0d 	sth	r2,-24(fp)
		}
		shift_req* req = (shift_req*) malloc(sizeof(shift_req));
 20015f8:	01000084 	movi	r4,2
 20015fc:	2003d200 	call	2003d20 <malloc>
 2001600:	e0bff915 	stw	r2,-28(fp)
		req->curr_gear = curr_gear;
 2001604:	e0fff917 	ldw	r3,-28(fp)
 2001608:	e0bffc03 	ldbu	r2,-16(fp)
 200160c:	18800005 	stb	r2,0(r3)
		req->new_gear = new_gear;
 2001610:	e0bffa0b 	ldhu	r2,-24(fp)
 2001614:	1007883a 	mov	r3,r2
 2001618:	e0bff917 	ldw	r2,-28(fp)
 200161c:	10c00045 	stb	r3,1(r2)
		printf("putting new gear %d into matching q\n", new_gear);
 2001620:	e17ffa0b 	ldhu	r5,-24(fp)
 2001624:	010080b4 	movhi	r4,514
 2001628:	2128c804 	addi	r4,r4,-23776
 200162c:	200468c0 	call	200468c <printf>
		OSQPost(shift_matching_q, (void*)req);
 2001630:	e13ffd17 	ldw	r4,-12(fp)
 2001634:	e17ff917 	ldw	r5,-28(fp)
 2001638:	20148040 	call	2014804 <OSQPost>
		curr_gear = new_gear;
 200163c:	e0bffa0b 	ldhu	r2,-24(fp)
 2001640:	e0bffc05 	stb	r2,-16(fp)
		OSSemPend(rpm_reached_flag, Q_TIMEOUT_WAIT_FOREVER, &err);
 2001644:	d1271017 	ldw	r4,-25536(gp)
 2001648:	e1bffe04 	addi	r6,fp,-8
 200164c:	000b883a 	mov	r5,zero
 2001650:	20153e00 	call	20153e0 <OSSemPend>
		free(req);
 2001654:	e13ff917 	ldw	r4,-28(fp)
 2001658:	2003d0c0 	call	2003d0c <free>
#endif
		if (shift_command == BUTTON_INPUT_SHIFT_UP){
 200165c:	e0bffb17 	ldw	r2,-20(fp)
 2001660:	10800118 	cmpnei	r2,r2,4
 2001664:	10000e1e 	bne	r2,zero,20016a0 <solenoid_task+0x204>
			shift_up();
 2001668:	200170c0 	call	200170c <shift_up>
			alarm = (alt_alarm*)malloc(sizeof(alt_alarm));
 200166c:	01000604 	movi	r4,24
 2001670:	2003d200 	call	2003d20 <malloc>
 2001674:	d0a71315 	stw	r2,-25524(gp)
			printf("setting up alarm\n");
 2001678:	010080b4 	movhi	r4,514
 200167c:	2128d204 	addi	r4,r4,-23736
 2001680:	20047a40 	call	20047a4 <puts>
			alt_alarm_start(alarm, SOLENOID_OPEN_DURATION_TICKS, &solenoid_callback, NULL);
 2001684:	d1271317 	ldw	r4,-25524(gp)
 2001688:	01403204 	movi	r5,200
 200168c:	01808034 	movhi	r6,512
 2001690:	3185d904 	addi	r6,r6,5988
 2001694:	000f883a 	mov	r7,zero
 2001698:	200e3480 	call	200e348 <alt_alarm_start>
 200169c:	00001506 	br	20016f4 <solenoid_task+0x258>
		}
		else if (shift_command == BUTTON_INPUT_SHIFT_DOWN){
 20016a0:	e0bffb17 	ldw	r2,-20(fp)
 20016a4:	10800218 	cmpnei	r2,r2,8
 20016a8:	10000e1e 	bne	r2,zero,20016e4 <solenoid_task+0x248>
			shift_down();
 20016ac:	20017380 	call	2001738 <shift_down>
			printf("setting down alarm\n");
 20016b0:	010080b4 	movhi	r4,514
 20016b4:	2128d704 	addi	r4,r4,-23716
 20016b8:	20047a40 	call	20047a4 <puts>
			alarm = (alt_alarm*)malloc(sizeof(alt_alarm));
 20016bc:	01000604 	movi	r4,24
 20016c0:	2003d200 	call	2003d20 <malloc>
 20016c4:	d0a71315 	stw	r2,-25524(gp)
			alt_alarm_start(alarm, SOLENOID_OPEN_DURATION_TICKS, &solenoid_callback, NULL);
 20016c8:	d1271317 	ldw	r4,-25524(gp)
 20016cc:	01403204 	movi	r5,200
 20016d0:	01808034 	movhi	r6,512
 20016d4:	3185d904 	addi	r6,r6,5988
 20016d8:	000f883a 	mov	r7,zero
 20016dc:	200e3480 	call	200e348 <alt_alarm_start>
 20016e0:	00000406 	br	20016f4 <solenoid_task+0x258>
		}else {
			printf("Unknown shift command received: %d\n", shift_command);
 20016e4:	010080b4 	movhi	r4,514
 20016e8:	2128dc04 	addi	r4,r4,-23696
 20016ec:	e17ffb17 	ldw	r5,-20(fp)
 20016f0:	200468c0 	call	200468c <printf>
		if(iteration_count % AVG_ITERATION == 0){
			end_tick = alt_timestamp();
			printf("s%d:%d\n", iteration_count, (end_tick - start_tick)/iteration_count);
		}
#endif
		OSTimeDlyHMSM(SOLENOID_TASK_DELAY_HOURS,
 20016f4:	0009883a 	mov	r4,zero
 20016f8:	000b883a 	mov	r5,zero
 20016fc:	000d883a 	mov	r6,zero
 2001700:	01c00c84 	movi	r7,50
 2001704:	20176c00 	call	20176c0 <OSTimeDlyHMSM>
				SOLENOID_TASK_DELAY_MINUTES,
				SOLENOID_TASK_DELAY_SECONDS,
				SOLENOID_TASK_DELAY_MILLISEC);
	}
 2001708:	003f8b06 	br	2001538 <solenoid_task+0x9c>

0200170c <shift_up>:
}

void shift_up(){
 200170c:	deffff04 	addi	sp,sp,-4
 2001710:	df000015 	stw	fp,0(sp)
 2001714:	d839883a 	mov	fp,sp
	//write shift up command
	IOWR_ALTERA_AVALON_PIO_DATA(SOLENOID_OUT_BASE, BUTTON_INPUT_SHIFT_UP);
 2001718:	00c10074 	movhi	r3,1025
 200171c:	18e40004 	addi	r3,r3,-28672
 2001720:	00800104 	movi	r2,4
 2001724:	18800035 	stwio	r2,0(r3)
}
 2001728:	e037883a 	mov	sp,fp
 200172c:	df000017 	ldw	fp,0(sp)
 2001730:	dec00104 	addi	sp,sp,4
 2001734:	f800283a 	ret

02001738 <shift_down>:

void shift_down(){
 2001738:	deffff04 	addi	sp,sp,-4
 200173c:	df000015 	stw	fp,0(sp)
 2001740:	d839883a 	mov	fp,sp
	//write shift down command
	IOWR_ALTERA_AVALON_PIO_DATA(SOLENOID_OUT_BASE, BUTTON_INPUT_SHIFT_DOWN);
 2001744:	00c10074 	movhi	r3,1025
 2001748:	18e40004 	addi	r3,r3,-28672
 200174c:	00800204 	movi	r2,8
 2001750:	18800035 	stwio	r2,0(r3)
}
 2001754:	e037883a 	mov	sp,fp
 2001758:	df000017 	ldw	fp,0(sp)
 200175c:	dec00104 	addi	sp,sp,4
 2001760:	f800283a 	ret

02001764 <solenoid_callback>:

/* Call back function after 200ms shift up or down */
alt_u32 solenoid_callback(void* context){
 2001764:	defffd04 	addi	sp,sp,-12
 2001768:	dfc00215 	stw	ra,8(sp)
 200176c:	df000115 	stw	fp,4(sp)
 2001770:	df000104 	addi	fp,sp,4
 2001774:	e13fff15 	stw	r4,-4(fp)
	//clear control
	if(alarm != NULL) free(alarm);
 2001778:	d0a71317 	ldw	r2,-25524(gp)
 200177c:	1005003a 	cmpeq	r2,r2,zero
 2001780:	1000021e 	bne	r2,zero,200178c <solenoid_callback+0x28>
 2001784:	d1271317 	ldw	r4,-25524(gp)
 2001788:	2003d0c0 	call	2003d0c <free>
	printf("cancel up alarm\n");
 200178c:	010080b4 	movhi	r4,514
 2001790:	2128e504 	addi	r4,r4,-23660
 2001794:	20047a40 	call	20047a4 <puts>
	IOWR_ALTERA_AVALON_PIO_DATA(SOLENOID_OUT_BASE, CLEAR_BUTTON_DATA);
 2001798:	00810074 	movhi	r2,1025
 200179c:	10a40004 	addi	r2,r2,-28672
 20017a0:	10000035 	stwio	zero,0(r2)
	signal_exit_shift_matching();
 20017a4:	20008380 	call	2000838 <signal_exit_shift_matching>
	OSSemPost(timer_active_flag);
 20017a8:	d1271617 	ldw	r4,-25512(gp)
 20017ac:	20157d80 	call	20157d8 <OSSemPost>
	return 0;
 20017b0:	0005883a 	mov	r2,zero
}
 20017b4:	e037883a 	mov	sp,fp
 20017b8:	dfc00117 	ldw	ra,4(sp)
 20017bc:	df000017 	ldw	fp,0(sp)
 20017c0:	dec00204 	addi	sp,sp,8
 20017c4:	f800283a 	ret

020017c8 <get_solenoid_task_external_failure_flag>:

OS_EVENT* get_solenoid_task_external_failure_flag(){
 20017c8:	deffff04 	addi	sp,sp,-4
 20017cc:	df000015 	stw	fp,0(sp)
 20017d0:	d839883a 	mov	fp,sp
	return solenoid_external_failure_flag;
 20017d4:	d0a71117 	ldw	r2,-25532(gp)
}
 20017d8:	e037883a 	mov	sp,fp
 20017dc:	df000017 	ldw	fp,0(sp)
 20017e0:	dec00104 	addi	sp,sp,4
 20017e4:	f800283a 	ret

020017e8 <get_solenoid_task_failure_resolved_flag>:

OS_EVENT* get_solenoid_task_failure_resolved_flag(){
 20017e8:	deffff04 	addi	sp,sp,-4
 20017ec:	df000015 	stw	fp,0(sp)
 20017f0:	d839883a 	mov	fp,sp
	return solenoid_failure_resolved_flag;
 20017f4:	d0a71217 	ldw	r2,-25528(gp)
}
 20017f8:	e037883a 	mov	sp,fp
 20017fc:	df000017 	ldw	fp,0(sp)
 2001800:	dec00104 	addi	sp,sp,4
 2001804:	f800283a 	ret

02001808 <signal_shift_start>:

void signal_shift_start(){
 2001808:	defffe04 	addi	sp,sp,-8
 200180c:	dfc00115 	stw	ra,4(sp)
 2001810:	df000015 	stw	fp,0(sp)
 2001814:	d839883a 	mov	fp,sp
	OSSemPost(rpm_reached_flag);
 2001818:	d1271017 	ldw	r4,-25536(gp)
 200181c:	20157d80 	call	20157d8 <OSSemPost>
}
 2001820:	e037883a 	mov	sp,fp
 2001824:	dfc00117 	ldw	ra,4(sp)
 2001828:	df000017 	ldw	fp,0(sp)
 200182c:	dec00204 	addi	sp,sp,8
 2001830:	f800283a 	ret

02001834 <CuStrAlloc>:
/*-------------------------------------------------------------------------*
 * CuStr
 *-------------------------------------------------------------------------*/

char* CuStrAlloc(int size)
{
 2001834:	defffc04 	addi	sp,sp,-16
 2001838:	dfc00315 	stw	ra,12(sp)
 200183c:	df000215 	stw	fp,8(sp)
 2001840:	df000204 	addi	fp,sp,8
 2001844:	e13fff15 	stw	r4,-4(fp)
	char* newStr = (char*) malloc( sizeof(char) * (size) );
 2001848:	e13fff17 	ldw	r4,-4(fp)
 200184c:	2003d200 	call	2003d20 <malloc>
 2001850:	e0bffe15 	stw	r2,-8(fp)
	return newStr;
 2001854:	e0bffe17 	ldw	r2,-8(fp)
}
 2001858:	e037883a 	mov	sp,fp
 200185c:	dfc00117 	ldw	ra,4(sp)
 2001860:	df000017 	ldw	fp,0(sp)
 2001864:	dec00204 	addi	sp,sp,8
 2001868:	f800283a 	ret

0200186c <CuStrCopy>:

char* CuStrCopy(const char* old)
{
 200186c:	defffb04 	addi	sp,sp,-20
 2001870:	dfc00415 	stw	ra,16(sp)
 2001874:	df000315 	stw	fp,12(sp)
 2001878:	df000304 	addi	fp,sp,12
 200187c:	e13fff15 	stw	r4,-4(fp)
	int len = strlen(old);
 2001880:	e13fff17 	ldw	r4,-4(fp)
 2001884:	200515c0 	call	200515c <strlen>
 2001888:	e0bffe15 	stw	r2,-8(fp)
	char* newStr = CuStrAlloc(len + 1);
 200188c:	e0bffe17 	ldw	r2,-8(fp)
 2001890:	11000044 	addi	r4,r2,1
 2001894:	20018340 	call	2001834 <CuStrAlloc>
 2001898:	e0bffd15 	stw	r2,-12(fp)
	strcpy(newStr, old);
 200189c:	e13ffd17 	ldw	r4,-12(fp)
 20018a0:	e17fff17 	ldw	r5,-4(fp)
 20018a4:	20050d00 	call	20050d0 <strcpy>
	return newStr;
 20018a8:	e0bffd17 	ldw	r2,-12(fp)
}
 20018ac:	e037883a 	mov	sp,fp
 20018b0:	dfc00117 	ldw	ra,4(sp)
 20018b4:	df000017 	ldw	fp,0(sp)
 20018b8:	dec00204 	addi	sp,sp,8
 20018bc:	f800283a 	ret

020018c0 <CuStringInit>:
/*-------------------------------------------------------------------------*
 * CuString
 *-------------------------------------------------------------------------*/

void CuStringInit(CuString* str)
{
 20018c0:	defffd04 	addi	sp,sp,-12
 20018c4:	dfc00215 	stw	ra,8(sp)
 20018c8:	df000115 	stw	fp,4(sp)
 20018cc:	df000104 	addi	fp,sp,4
 20018d0:	e13fff15 	stw	r4,-4(fp)
	str->length = 0;
 20018d4:	e0bfff17 	ldw	r2,-4(fp)
 20018d8:	10000015 	stw	zero,0(r2)
	str->size = STRING_MAX;
 20018dc:	e0ffff17 	ldw	r3,-4(fp)
 20018e0:	00804004 	movi	r2,256
 20018e4:	18800115 	stw	r2,4(r3)
	str->buffer = (char*) malloc(sizeof(char) * str->size);
 20018e8:	e0bfff17 	ldw	r2,-4(fp)
 20018ec:	10800117 	ldw	r2,4(r2)
 20018f0:	1009883a 	mov	r4,r2
 20018f4:	2003d200 	call	2003d20 <malloc>
 20018f8:	1007883a 	mov	r3,r2
 20018fc:	e0bfff17 	ldw	r2,-4(fp)
 2001900:	10c00215 	stw	r3,8(r2)
	str->buffer[0] = '\0';
 2001904:	e0bfff17 	ldw	r2,-4(fp)
 2001908:	10800217 	ldw	r2,8(r2)
 200190c:	10000005 	stb	zero,0(r2)
}
 2001910:	e037883a 	mov	sp,fp
 2001914:	dfc00117 	ldw	ra,4(sp)
 2001918:	df000017 	ldw	fp,0(sp)
 200191c:	dec00204 	addi	sp,sp,8
 2001920:	f800283a 	ret

02001924 <CuStringNew>:

CuString* CuStringNew(void)
{
 2001924:	defffd04 	addi	sp,sp,-12
 2001928:	dfc00215 	stw	ra,8(sp)
 200192c:	df000115 	stw	fp,4(sp)
 2001930:	df000104 	addi	fp,sp,4
	CuString* str = (CuString*) malloc(sizeof(CuString));
 2001934:	01000304 	movi	r4,12
 2001938:	2003d200 	call	2003d20 <malloc>
 200193c:	e0bfff15 	stw	r2,-4(fp)
	str->length = 0;
 2001940:	e0bfff17 	ldw	r2,-4(fp)
 2001944:	10000015 	stw	zero,0(r2)
	str->size = STRING_MAX;
 2001948:	e0ffff17 	ldw	r3,-4(fp)
 200194c:	00804004 	movi	r2,256
 2001950:	18800115 	stw	r2,4(r3)
	str->buffer = (char*) malloc(sizeof(char) * str->size);
 2001954:	e0bfff17 	ldw	r2,-4(fp)
 2001958:	10800117 	ldw	r2,4(r2)
 200195c:	1009883a 	mov	r4,r2
 2001960:	2003d200 	call	2003d20 <malloc>
 2001964:	1007883a 	mov	r3,r2
 2001968:	e0bfff17 	ldw	r2,-4(fp)
 200196c:	10c00215 	stw	r3,8(r2)
	str->buffer[0] = '\0';
 2001970:	e0bfff17 	ldw	r2,-4(fp)
 2001974:	10800217 	ldw	r2,8(r2)
 2001978:	10000005 	stb	zero,0(r2)
	return str;
 200197c:	e0bfff17 	ldw	r2,-4(fp)
}
 2001980:	e037883a 	mov	sp,fp
 2001984:	dfc00117 	ldw	ra,4(sp)
 2001988:	df000017 	ldw	fp,0(sp)
 200198c:	dec00204 	addi	sp,sp,8
 2001990:	f800283a 	ret

02001994 <CuStringDelete>:

void CuStringDelete(CuString *str)
{
 2001994:	defffd04 	addi	sp,sp,-12
 2001998:	dfc00215 	stw	ra,8(sp)
 200199c:	df000115 	stw	fp,4(sp)
 20019a0:	df000104 	addi	fp,sp,4
 20019a4:	e13fff15 	stw	r4,-4(fp)
        if (!str) return;
 20019a8:	e0bfff17 	ldw	r2,-4(fp)
 20019ac:	1005003a 	cmpeq	r2,r2,zero
 20019b0:	1000051e 	bne	r2,zero,20019c8 <CuStringDelete+0x34>
        free(str->buffer);
 20019b4:	e0bfff17 	ldw	r2,-4(fp)
 20019b8:	11000217 	ldw	r4,8(r2)
 20019bc:	2003d0c0 	call	2003d0c <free>
        free(str);
 20019c0:	e13fff17 	ldw	r4,-4(fp)
 20019c4:	2003d0c0 	call	2003d0c <free>
}
 20019c8:	e037883a 	mov	sp,fp
 20019cc:	dfc00117 	ldw	ra,4(sp)
 20019d0:	df000017 	ldw	fp,0(sp)
 20019d4:	dec00204 	addi	sp,sp,8
 20019d8:	f800283a 	ret

020019dc <CuStringResize>:

void CuStringResize(CuString* str, int newSize)
{
 20019dc:	defffc04 	addi	sp,sp,-16
 20019e0:	dfc00315 	stw	ra,12(sp)
 20019e4:	df000215 	stw	fp,8(sp)
 20019e8:	df000204 	addi	fp,sp,8
 20019ec:	e13ffe15 	stw	r4,-8(fp)
 20019f0:	e17fff15 	stw	r5,-4(fp)
	str->buffer = (char*) realloc(str->buffer, sizeof(char) * newSize);
 20019f4:	e0bffe17 	ldw	r2,-8(fp)
 20019f8:	11000217 	ldw	r4,8(r2)
 20019fc:	e17fff17 	ldw	r5,-4(fp)
 2001a00:	20047b80 	call	20047b8 <realloc>
 2001a04:	1007883a 	mov	r3,r2
 2001a08:	e0bffe17 	ldw	r2,-8(fp)
 2001a0c:	10c00215 	stw	r3,8(r2)
	str->size = newSize;
 2001a10:	e0fffe17 	ldw	r3,-8(fp)
 2001a14:	e0bfff17 	ldw	r2,-4(fp)
 2001a18:	18800115 	stw	r2,4(r3)
}
 2001a1c:	e037883a 	mov	sp,fp
 2001a20:	dfc00117 	ldw	ra,4(sp)
 2001a24:	df000017 	ldw	fp,0(sp)
 2001a28:	dec00204 	addi	sp,sp,8
 2001a2c:	f800283a 	ret

02001a30 <CuStringAppend>:

void CuStringAppend(CuString* str, const char* text)
{
 2001a30:	defffb04 	addi	sp,sp,-20
 2001a34:	dfc00415 	stw	ra,16(sp)
 2001a38:	df000315 	stw	fp,12(sp)
 2001a3c:	df000304 	addi	fp,sp,12
 2001a40:	e13ffe15 	stw	r4,-8(fp)
 2001a44:	e17fff15 	stw	r5,-4(fp)
	int length;

	if (text == NULL) {
 2001a48:	e0bfff17 	ldw	r2,-4(fp)
 2001a4c:	1004c03a 	cmpne	r2,r2,zero
 2001a50:	1000031e 	bne	r2,zero,2001a60 <CuStringAppend+0x30>
		text = "NULL";
 2001a54:	008080b4 	movhi	r2,514
 2001a58:	10a8e904 	addi	r2,r2,-23644
 2001a5c:	e0bfff15 	stw	r2,-4(fp)
	}

	length = strlen(text);
 2001a60:	e13fff17 	ldw	r4,-4(fp)
 2001a64:	200515c0 	call	200515c <strlen>
 2001a68:	e0bffd15 	stw	r2,-12(fp)
	if (str->length + length + 1 >= str->size)
 2001a6c:	e0bffe17 	ldw	r2,-8(fp)
 2001a70:	10c00017 	ldw	r3,0(r2)
 2001a74:	e0bffd17 	ldw	r2,-12(fp)
 2001a78:	1885883a 	add	r2,r3,r2
 2001a7c:	10c00044 	addi	r3,r2,1
 2001a80:	e0bffe17 	ldw	r2,-8(fp)
 2001a84:	10800117 	ldw	r2,4(r2)
 2001a88:	18800716 	blt	r3,r2,2001aa8 <CuStringAppend+0x78>
		CuStringResize(str, str->length + length + 1 + STRING_INC);
 2001a8c:	e0bffe17 	ldw	r2,-8(fp)
 2001a90:	10c00017 	ldw	r3,0(r2)
 2001a94:	e0bffd17 	ldw	r2,-12(fp)
 2001a98:	1885883a 	add	r2,r3,r2
 2001a9c:	11404044 	addi	r5,r2,257
 2001aa0:	e13ffe17 	ldw	r4,-8(fp)
 2001aa4:	20019dc0 	call	20019dc <CuStringResize>
	str->length += length;
 2001aa8:	e0bffe17 	ldw	r2,-8(fp)
 2001aac:	10c00017 	ldw	r3,0(r2)
 2001ab0:	e0bffd17 	ldw	r2,-12(fp)
 2001ab4:	1887883a 	add	r3,r3,r2
 2001ab8:	e0bffe17 	ldw	r2,-8(fp)
 2001abc:	10c00015 	stw	r3,0(r2)
	strcat(str->buffer, text);
 2001ac0:	e0bffe17 	ldw	r2,-8(fp)
 2001ac4:	11000217 	ldw	r4,8(r2)
 2001ac8:	e17fff17 	ldw	r5,-4(fp)
 2001acc:	2004f840 	call	2004f84 <strcat>
}
 2001ad0:	e037883a 	mov	sp,fp
 2001ad4:	dfc00117 	ldw	ra,4(sp)
 2001ad8:	df000017 	ldw	fp,0(sp)
 2001adc:	dec00204 	addi	sp,sp,8
 2001ae0:	f800283a 	ret

02001ae4 <CuStringAppendChar>:

void CuStringAppendChar(CuString* str, char ch)
{
 2001ae4:	defffb04 	addi	sp,sp,-20
 2001ae8:	dfc00415 	stw	ra,16(sp)
 2001aec:	df000315 	stw	fp,12(sp)
 2001af0:	df000304 	addi	fp,sp,12
 2001af4:	e13ffe15 	stw	r4,-8(fp)
 2001af8:	e17fff05 	stb	r5,-4(fp)
	char text[2];
	text[0] = ch;
 2001afc:	e0bfff03 	ldbu	r2,-4(fp)
 2001b00:	e0bffd05 	stb	r2,-12(fp)
	text[1] = '\0';
 2001b04:	e03ffd45 	stb	zero,-11(fp)
	CuStringAppend(str, text);
 2001b08:	e13ffe17 	ldw	r4,-8(fp)
 2001b0c:	e17ffd04 	addi	r5,fp,-12
 2001b10:	2001a300 	call	2001a30 <CuStringAppend>
}
 2001b14:	e037883a 	mov	sp,fp
 2001b18:	dfc00117 	ldw	ra,4(sp)
 2001b1c:	df000017 	ldw	fp,0(sp)
 2001b20:	dec00204 	addi	sp,sp,8
 2001b24:	f800283a 	ret

02001b28 <CuStringAppendFormat>:

void CuStringAppendFormat(CuString* str, const char* format, ...)
{
 2001b28:	defffb04 	addi	sp,sp,-20
 2001b2c:	df000215 	stw	fp,8(sp)
 2001b30:	df000204 	addi	fp,sp,8
 2001b34:	e13ffe15 	stw	r4,-8(fp)
 2001b38:	e1800115 	stw	r6,4(fp)
 2001b3c:	e1c00215 	stw	r7,8(fp)
 2001b40:	e17fff15 	stw	r5,-4(fp)
//	char buf[HUGE_STRING_LEN];
//	va_start(argp, format);
//	vsprintf(buf, format, argp);
//	va_end(argp);
//	CuStringAppend(str, buf);
}
 2001b44:	e037883a 	mov	sp,fp
 2001b48:	df000017 	ldw	fp,0(sp)
 2001b4c:	dec00304 	addi	sp,sp,12
 2001b50:	f800283a 	ret

02001b54 <CuStringInsert>:

void CuStringInsert(CuString* str, const char* text, int pos)
{
 2001b54:	defffa04 	addi	sp,sp,-24
 2001b58:	dfc00515 	stw	ra,20(sp)
 2001b5c:	df000415 	stw	fp,16(sp)
 2001b60:	df000404 	addi	fp,sp,16
 2001b64:	e13ffd15 	stw	r4,-12(fp)
 2001b68:	e17ffe15 	stw	r5,-8(fp)
 2001b6c:	e1bfff15 	stw	r6,-4(fp)
	int length = strlen(text);
 2001b70:	e13ffe17 	ldw	r4,-8(fp)
 2001b74:	200515c0 	call	200515c <strlen>
 2001b78:	e0bffc15 	stw	r2,-16(fp)
	if (pos > str->length)
 2001b7c:	e0bffd17 	ldw	r2,-12(fp)
 2001b80:	10c00017 	ldw	r3,0(r2)
 2001b84:	e0bfff17 	ldw	r2,-4(fp)
 2001b88:	1880030e 	bge	r3,r2,2001b98 <CuStringInsert+0x44>
		pos = str->length;
 2001b8c:	e0bffd17 	ldw	r2,-12(fp)
 2001b90:	10800017 	ldw	r2,0(r2)
 2001b94:	e0bfff15 	stw	r2,-4(fp)
	if (str->length + length + 1 >= str->size)
 2001b98:	e0bffd17 	ldw	r2,-12(fp)
 2001b9c:	10c00017 	ldw	r3,0(r2)
 2001ba0:	e0bffc17 	ldw	r2,-16(fp)
 2001ba4:	1885883a 	add	r2,r3,r2
 2001ba8:	10c00044 	addi	r3,r2,1
 2001bac:	e0bffd17 	ldw	r2,-12(fp)
 2001bb0:	10800117 	ldw	r2,4(r2)
 2001bb4:	18800716 	blt	r3,r2,2001bd4 <CuStringInsert+0x80>
		CuStringResize(str, str->length + length + 1 + STRING_INC);
 2001bb8:	e0bffd17 	ldw	r2,-12(fp)
 2001bbc:	10c00017 	ldw	r3,0(r2)
 2001bc0:	e0bffc17 	ldw	r2,-16(fp)
 2001bc4:	1885883a 	add	r2,r3,r2
 2001bc8:	11404044 	addi	r5,r2,257
 2001bcc:	e13ffd17 	ldw	r4,-12(fp)
 2001bd0:	20019dc0 	call	20019dc <CuStringResize>
	memmove(str->buffer + pos + length, str->buffer + pos, (str->length - pos) + 1);
 2001bd4:	e0bffd17 	ldw	r2,-12(fp)
 2001bd8:	10c00217 	ldw	r3,8(r2)
 2001bdc:	e0bfff17 	ldw	r2,-4(fp)
 2001be0:	1887883a 	add	r3,r3,r2
 2001be4:	e0bffc17 	ldw	r2,-16(fp)
 2001be8:	1889883a 	add	r4,r3,r2
 2001bec:	e0bffd17 	ldw	r2,-12(fp)
 2001bf0:	10c00217 	ldw	r3,8(r2)
 2001bf4:	e0bfff17 	ldw	r2,-4(fp)
 2001bf8:	188b883a 	add	r5,r3,r2
 2001bfc:	e0bffd17 	ldw	r2,-12(fp)
 2001c00:	10c00017 	ldw	r3,0(r2)
 2001c04:	e0bfff17 	ldw	r2,-4(fp)
 2001c08:	1885c83a 	sub	r2,r3,r2
 2001c0c:	10800044 	addi	r2,r2,1
 2001c10:	100d883a 	mov	r6,r2
 2001c14:	20045140 	call	2004514 <memmove>
	str->length += length;
 2001c18:	e0bffd17 	ldw	r2,-12(fp)
 2001c1c:	10c00017 	ldw	r3,0(r2)
 2001c20:	e0bffc17 	ldw	r2,-16(fp)
 2001c24:	1887883a 	add	r3,r3,r2
 2001c28:	e0bffd17 	ldw	r2,-12(fp)
 2001c2c:	10c00015 	stw	r3,0(r2)
	memcpy(str->buffer + pos, text, length);
 2001c30:	e0bffd17 	ldw	r2,-12(fp)
 2001c34:	10c00217 	ldw	r3,8(r2)
 2001c38:	e0bfff17 	ldw	r2,-4(fp)
 2001c3c:	1887883a 	add	r3,r3,r2
 2001c40:	e1bffc17 	ldw	r6,-16(fp)
 2001c44:	e0bffe17 	ldw	r2,-8(fp)
 2001c48:	1809883a 	mov	r4,r3
 2001c4c:	100b883a 	mov	r5,r2
 2001c50:	20044740 	call	2004474 <memcpy>
}
 2001c54:	e037883a 	mov	sp,fp
 2001c58:	dfc00117 	ldw	ra,4(sp)
 2001c5c:	df000017 	ldw	fp,0(sp)
 2001c60:	dec00204 	addi	sp,sp,8
 2001c64:	f800283a 	ret

02001c68 <CuTestInit>:
/*-------------------------------------------------------------------------*
 * CuTest
 *-------------------------------------------------------------------------*/

void CuTestInit(CuTest* t, const char* name, TestFunction function)
{
 2001c68:	defffb04 	addi	sp,sp,-20
 2001c6c:	dfc00415 	stw	ra,16(sp)
 2001c70:	df000315 	stw	fp,12(sp)
 2001c74:	df000304 	addi	fp,sp,12
 2001c78:	e13ffd15 	stw	r4,-12(fp)
 2001c7c:	e17ffe15 	stw	r5,-8(fp)
 2001c80:	e1bfff15 	stw	r6,-4(fp)
	t->name = CuStrCopy(name);
 2001c84:	e13ffe17 	ldw	r4,-8(fp)
 2001c88:	200186c0 	call	200186c <CuStrCopy>
 2001c8c:	1007883a 	mov	r3,r2
 2001c90:	e0bffd17 	ldw	r2,-12(fp)
 2001c94:	10c00015 	stw	r3,0(r2)
	t->failed = 0;
 2001c98:	e0bffd17 	ldw	r2,-12(fp)
 2001c9c:	10000215 	stw	zero,8(r2)
	t->ran = 0;
 2001ca0:	e0bffd17 	ldw	r2,-12(fp)
 2001ca4:	10000315 	stw	zero,12(r2)
	t->message = NULL;
 2001ca8:	e0bffd17 	ldw	r2,-12(fp)
 2001cac:	10000415 	stw	zero,16(r2)
	t->function = function;
 2001cb0:	e0fffd17 	ldw	r3,-12(fp)
 2001cb4:	e0bfff17 	ldw	r2,-4(fp)
 2001cb8:	18800115 	stw	r2,4(r3)
	t->jumpBuf = NULL;
 2001cbc:	e0bffd17 	ldw	r2,-12(fp)
 2001cc0:	10000515 	stw	zero,20(r2)
}
 2001cc4:	e037883a 	mov	sp,fp
 2001cc8:	dfc00117 	ldw	ra,4(sp)
 2001ccc:	df000017 	ldw	fp,0(sp)
 2001cd0:	dec00204 	addi	sp,sp,8
 2001cd4:	f800283a 	ret

02001cd8 <CuTestNew>:

CuTest* CuTestNew(const char* name, TestFunction function)
{
 2001cd8:	defffb04 	addi	sp,sp,-20
 2001cdc:	dfc00415 	stw	ra,16(sp)
 2001ce0:	df000315 	stw	fp,12(sp)
 2001ce4:	df000304 	addi	fp,sp,12
 2001ce8:	e13ffe15 	stw	r4,-8(fp)
 2001cec:	e17fff15 	stw	r5,-4(fp)
	CuTest* tc = CU_ALLOC(CuTest);
 2001cf0:	01000604 	movi	r4,24
 2001cf4:	2003d200 	call	2003d20 <malloc>
 2001cf8:	e0bffd15 	stw	r2,-12(fp)
	CuTestInit(tc, name, function);
 2001cfc:	e13ffd17 	ldw	r4,-12(fp)
 2001d00:	e17ffe17 	ldw	r5,-8(fp)
 2001d04:	e1bfff17 	ldw	r6,-4(fp)
 2001d08:	2001c680 	call	2001c68 <CuTestInit>
	return tc;
 2001d0c:	e0bffd17 	ldw	r2,-12(fp)
}
 2001d10:	e037883a 	mov	sp,fp
 2001d14:	dfc00117 	ldw	ra,4(sp)
 2001d18:	df000017 	ldw	fp,0(sp)
 2001d1c:	dec00204 	addi	sp,sp,8
 2001d20:	f800283a 	ret

02001d24 <CuTestDelete>:

void CuTestDelete(CuTest *t)
{
 2001d24:	defffd04 	addi	sp,sp,-12
 2001d28:	dfc00215 	stw	ra,8(sp)
 2001d2c:	df000115 	stw	fp,4(sp)
 2001d30:	df000104 	addi	fp,sp,4
 2001d34:	e13fff15 	stw	r4,-4(fp)
        if (!t) return;
 2001d38:	e0bfff17 	ldw	r2,-4(fp)
 2001d3c:	1005003a 	cmpeq	r2,r2,zero
 2001d40:	1000051e 	bne	r2,zero,2001d58 <CuTestDelete+0x34>
        free(t->name);
 2001d44:	e0bfff17 	ldw	r2,-4(fp)
 2001d48:	11000017 	ldw	r4,0(r2)
 2001d4c:	2003d0c0 	call	2003d0c <free>
        free(t);
 2001d50:	e13fff17 	ldw	r4,-4(fp)
 2001d54:	2003d0c0 	call	2003d0c <free>
}
 2001d58:	e037883a 	mov	sp,fp
 2001d5c:	dfc00117 	ldw	ra,4(sp)
 2001d60:	df000017 	ldw	fp,0(sp)
 2001d64:	dec00204 	addi	sp,sp,8
 2001d68:	f800283a 	ret

02001d6c <CuTestRun>:

void CuTestRun(CuTest* tc)
{
 2001d6c:	deffd504 	addi	sp,sp,-172
 2001d70:	dfc02a15 	stw	ra,168(sp)
 2001d74:	df002915 	stw	fp,164(sp)
 2001d78:	df002904 	addi	fp,sp,164
 2001d7c:	e13fff15 	stw	r4,-4(fp)
	jmp_buf buf;
	tc->jumpBuf = &buf;
 2001d80:	e0bfff17 	ldw	r2,-4(fp)
 2001d84:	e0ffd704 	addi	r3,fp,-164
 2001d88:	10c00515 	stw	r3,20(r2)
	if (setjmp(buf) == 0)
 2001d8c:	e13fd704 	addi	r4,fp,-164
 2001d90:	2004e380 	call	2004e38 <setjmp>
 2001d94:	1004c03a 	cmpne	r2,r2,zero
 2001d98:	1000071e 	bne	r2,zero,2001db8 <CuTestRun+0x4c>
	{
		tc->ran = 1;
 2001d9c:	e0ffff17 	ldw	r3,-4(fp)
 2001da0:	00800044 	movi	r2,1
 2001da4:	18800315 	stw	r2,12(r3)
		(tc->function)(tc);
 2001da8:	e0bfff17 	ldw	r2,-4(fp)
 2001dac:	10800117 	ldw	r2,4(r2)
 2001db0:	e13fff17 	ldw	r4,-4(fp)
 2001db4:	103ee83a 	callr	r2
	}
	tc->jumpBuf = 0;
 2001db8:	e0bfff17 	ldw	r2,-4(fp)
 2001dbc:	10000515 	stw	zero,20(r2)
}
 2001dc0:	e037883a 	mov	sp,fp
 2001dc4:	dfc00117 	ldw	ra,4(sp)
 2001dc8:	df000017 	ldw	fp,0(sp)
 2001dcc:	dec00204 	addi	sp,sp,8
 2001dd0:	f800283a 	ret

02001dd4 <CuFailInternal>:

static void CuFailInternal(CuTest* tc, const char* file, int line, CuString* string)
{
 2001dd4:	def7fa04 	addi	sp,sp,-8216
 2001dd8:	dfc80515 	stw	ra,8212(sp)
 2001ddc:	df080415 	stw	fp,8208(sp)
 2001de0:	df080404 	addi	fp,sp,8208
 2001de4:	e13ffc15 	stw	r4,-16(fp)
 2001de8:	e17ffd15 	stw	r5,-12(fp)
 2001dec:	e1bffe15 	stw	r6,-8(fp)
 2001df0:	e1ffff15 	stw	r7,-4(fp)
	char buf[HUGE_STRING_LEN];

	sprintf(buf, "%s:%d: ", file, line);
 2001df4:	e137fc04 	addi	r4,fp,-8208
 2001df8:	014080b4 	movhi	r5,514
 2001dfc:	2968eb04 	addi	r5,r5,-23636
 2001e00:	e1bffd17 	ldw	r6,-12(fp)
 2001e04:	e1fffe17 	ldw	r7,-8(fp)
 2001e08:	2004eb00 	call	2004eb0 <sprintf>
	CuStringInsert(string, buf, 0);
 2001e0c:	e13fff17 	ldw	r4,-4(fp)
 2001e10:	e177fc04 	addi	r5,fp,-8208
 2001e14:	000d883a 	mov	r6,zero
 2001e18:	2001b540 	call	2001b54 <CuStringInsert>

	tc->failed = 1;
 2001e1c:	e0fffc17 	ldw	r3,-16(fp)
 2001e20:	00800044 	movi	r2,1
 2001e24:	18800215 	stw	r2,8(r3)
	tc->message = string->buffer;
 2001e28:	e0bfff17 	ldw	r2,-4(fp)
 2001e2c:	10c00217 	ldw	r3,8(r2)
 2001e30:	e0bffc17 	ldw	r2,-16(fp)
 2001e34:	10c00415 	stw	r3,16(r2)
	if (tc->jumpBuf != 0) longjmp(*(tc->jumpBuf), 0);
 2001e38:	e0bffc17 	ldw	r2,-16(fp)
 2001e3c:	10800517 	ldw	r2,20(r2)
 2001e40:	1005003a 	cmpeq	r2,r2,zero
 2001e44:	1000051e 	bne	r2,zero,2001e5c <CuFailInternal+0x88>
 2001e48:	e0bffc17 	ldw	r2,-16(fp)
 2001e4c:	10800517 	ldw	r2,20(r2)
 2001e50:	1009883a 	mov	r4,r2
 2001e54:	000b883a 	mov	r5,zero
 2001e58:	2004e700 	call	2004e70 <longjmp>
}
 2001e5c:	e037883a 	mov	sp,fp
 2001e60:	dfc00117 	ldw	ra,4(sp)
 2001e64:	df000017 	ldw	fp,0(sp)
 2001e68:	dec00204 	addi	sp,sp,8
 2001e6c:	f800283a 	ret

02001e70 <CuFail_Line>:

void CuFail_Line(CuTest* tc, const char* file, int line, const char* message2, const char* message)
{
 2001e70:	defff704 	addi	sp,sp,-36
 2001e74:	dfc00815 	stw	ra,32(sp)
 2001e78:	df000715 	stw	fp,28(sp)
 2001e7c:	df000704 	addi	fp,sp,28
 2001e80:	e13ffc15 	stw	r4,-16(fp)
 2001e84:	e17ffd15 	stw	r5,-12(fp)
 2001e88:	e1bffe15 	stw	r6,-8(fp)
 2001e8c:	e1ffff15 	stw	r7,-4(fp)
	CuString string;

	CuStringInit(&string);
 2001e90:	e13ff904 	addi	r4,fp,-28
 2001e94:	20018c00 	call	20018c0 <CuStringInit>
	if (message2 != NULL) 
 2001e98:	e0bfff17 	ldw	r2,-4(fp)
 2001e9c:	1005003a 	cmpeq	r2,r2,zero
 2001ea0:	1000071e 	bne	r2,zero,2001ec0 <CuFail_Line+0x50>
	{
		CuStringAppend(&string, message2);
 2001ea4:	e13ff904 	addi	r4,fp,-28
 2001ea8:	e17fff17 	ldw	r5,-4(fp)
 2001eac:	2001a300 	call	2001a30 <CuStringAppend>
		CuStringAppend(&string, ": ");
 2001eb0:	e13ff904 	addi	r4,fp,-28
 2001eb4:	014080b4 	movhi	r5,514
 2001eb8:	2968ed04 	addi	r5,r5,-23628
 2001ebc:	2001a300 	call	2001a30 <CuStringAppend>
	}
	CuStringAppend(&string, message);
 2001ec0:	e13ff904 	addi	r4,fp,-28
 2001ec4:	e1400217 	ldw	r5,8(fp)
 2001ec8:	2001a300 	call	2001a30 <CuStringAppend>
	CuFailInternal(tc, file, line, &string);
 2001ecc:	e13ffc17 	ldw	r4,-16(fp)
 2001ed0:	e17ffd17 	ldw	r5,-12(fp)
 2001ed4:	e1bffe17 	ldw	r6,-8(fp)
 2001ed8:	e1fff904 	addi	r7,fp,-28
 2001edc:	2001dd40 	call	2001dd4 <CuFailInternal>
}
 2001ee0:	e037883a 	mov	sp,fp
 2001ee4:	dfc00117 	ldw	ra,4(sp)
 2001ee8:	df000017 	ldw	fp,0(sp)
 2001eec:	dec00204 	addi	sp,sp,8
 2001ef0:	f800283a 	ret

02001ef4 <CuAssert_Line>:

void CuAssert_Line(CuTest* tc, const char* file, int line, const char* message, int condition)
{
 2001ef4:	defff904 	addi	sp,sp,-28
 2001ef8:	dfc00615 	stw	ra,24(sp)
 2001efc:	df000515 	stw	fp,20(sp)
 2001f00:	df000504 	addi	fp,sp,20
 2001f04:	e13ffc15 	stw	r4,-16(fp)
 2001f08:	e17ffd15 	stw	r5,-12(fp)
 2001f0c:	e1bffe15 	stw	r6,-8(fp)
 2001f10:	e1ffff15 	stw	r7,-4(fp)
	if (condition) return;
 2001f14:	e0800217 	ldw	r2,8(fp)
 2001f18:	1004c03a 	cmpne	r2,r2,zero
 2001f1c:	1000071e 	bne	r2,zero,2001f3c <CuAssert_Line+0x48>
	CuFail_Line(tc, file, line, NULL, message);
 2001f20:	e0bfff17 	ldw	r2,-4(fp)
 2001f24:	d8800015 	stw	r2,0(sp)
 2001f28:	e13ffc17 	ldw	r4,-16(fp)
 2001f2c:	e17ffd17 	ldw	r5,-12(fp)
 2001f30:	e1bffe17 	ldw	r6,-8(fp)
 2001f34:	000f883a 	mov	r7,zero
 2001f38:	2001e700 	call	2001e70 <CuFail_Line>
}
 2001f3c:	e037883a 	mov	sp,fp
 2001f40:	dfc00117 	ldw	ra,4(sp)
 2001f44:	df000017 	ldw	fp,0(sp)
 2001f48:	dec00204 	addi	sp,sp,8
 2001f4c:	f800283a 	ret

02001f50 <CuAssertStrEquals_LineMsg>:

void CuAssertStrEquals_LineMsg(CuTest* tc, const char* file, int line, const char* message, 
	const char* expected, const char* actual)
{
 2001f50:	defff704 	addi	sp,sp,-36
 2001f54:	dfc00815 	stw	ra,32(sp)
 2001f58:	df000715 	stw	fp,28(sp)
 2001f5c:	df000704 	addi	fp,sp,28
 2001f60:	e13ffc15 	stw	r4,-16(fp)
 2001f64:	e17ffd15 	stw	r5,-12(fp)
 2001f68:	e1bffe15 	stw	r6,-8(fp)
 2001f6c:	e1ffff15 	stw	r7,-4(fp)
	CuString string;
	if ((expected == NULL && actual == NULL) ||
 2001f70:	e0800217 	ldw	r2,8(fp)
 2001f74:	1004c03a 	cmpne	r2,r2,zero
 2001f78:	1000031e 	bne	r2,zero,2001f88 <CuAssertStrEquals_LineMsg+0x38>
 2001f7c:	e0800317 	ldw	r2,12(fp)
 2001f80:	1005003a 	cmpeq	r2,r2,zero
 2001f84:	10002f1e 	bne	r2,zero,2002044 <CuAssertStrEquals_LineMsg+0xf4>
 2001f88:	e0800217 	ldw	r2,8(fp)
 2001f8c:	1005003a 	cmpeq	r2,r2,zero
 2001f90:	1000091e 	bne	r2,zero,2001fb8 <CuAssertStrEquals_LineMsg+0x68>
 2001f94:	e0800317 	ldw	r2,12(fp)
 2001f98:	1005003a 	cmpeq	r2,r2,zero
 2001f9c:	1000061e 	bne	r2,zero,2001fb8 <CuAssertStrEquals_LineMsg+0x68>
 2001fa0:	e1000217 	ldw	r4,8(fp)
 2001fa4:	e1400317 	ldw	r5,12(fp)
 2001fa8:	20050140 	call	2005014 <strcmp>
 2001fac:	1004c03a 	cmpne	r2,r2,zero
 2001fb0:	1000011e 	bne	r2,zero,2001fb8 <CuAssertStrEquals_LineMsg+0x68>
	    (expected != NULL && actual != NULL &&
	     strcmp(expected, actual) == 0))
	{
		return;
 2001fb4:	00002306 	br	2002044 <CuAssertStrEquals_LineMsg+0xf4>
	}

	CuStringInit(&string);
 2001fb8:	e13ff904 	addi	r4,fp,-28
 2001fbc:	20018c00 	call	20018c0 <CuStringInit>
	if (message != NULL) 
 2001fc0:	e0bfff17 	ldw	r2,-4(fp)
 2001fc4:	1005003a 	cmpeq	r2,r2,zero
 2001fc8:	1000071e 	bne	r2,zero,2001fe8 <CuAssertStrEquals_LineMsg+0x98>
	{
		CuStringAppend(&string, message);
 2001fcc:	e13ff904 	addi	r4,fp,-28
 2001fd0:	e17fff17 	ldw	r5,-4(fp)
 2001fd4:	2001a300 	call	2001a30 <CuStringAppend>
		CuStringAppend(&string, ": ");
 2001fd8:	e13ff904 	addi	r4,fp,-28
 2001fdc:	014080b4 	movhi	r5,514
 2001fe0:	2968ed04 	addi	r5,r5,-23628
 2001fe4:	2001a300 	call	2001a30 <CuStringAppend>
	}
	CuStringAppend(&string, "expected <");
 2001fe8:	e13ff904 	addi	r4,fp,-28
 2001fec:	014080b4 	movhi	r5,514
 2001ff0:	2968ee04 	addi	r5,r5,-23624
 2001ff4:	2001a300 	call	2001a30 <CuStringAppend>
	CuStringAppend(&string, expected);
 2001ff8:	e13ff904 	addi	r4,fp,-28
 2001ffc:	e1400217 	ldw	r5,8(fp)
 2002000:	2001a300 	call	2001a30 <CuStringAppend>
	CuStringAppend(&string, "> but was <");
 2002004:	e13ff904 	addi	r4,fp,-28
 2002008:	014080b4 	movhi	r5,514
 200200c:	2968f104 	addi	r5,r5,-23612
 2002010:	2001a300 	call	2001a30 <CuStringAppend>
	CuStringAppend(&string, actual);
 2002014:	e13ff904 	addi	r4,fp,-28
 2002018:	e1400317 	ldw	r5,12(fp)
 200201c:	2001a300 	call	2001a30 <CuStringAppend>
	CuStringAppend(&string, ">");
 2002020:	e13ff904 	addi	r4,fp,-28
 2002024:	014080b4 	movhi	r5,514
 2002028:	2968f404 	addi	r5,r5,-23600
 200202c:	2001a300 	call	2001a30 <CuStringAppend>
	CuFailInternal(tc, file, line, &string);
 2002030:	e13ffc17 	ldw	r4,-16(fp)
 2002034:	e17ffd17 	ldw	r5,-12(fp)
 2002038:	e1bffe17 	ldw	r6,-8(fp)
 200203c:	e1fff904 	addi	r7,fp,-28
 2002040:	2001dd40 	call	2001dd4 <CuFailInternal>
}
 2002044:	e037883a 	mov	sp,fp
 2002048:	dfc00117 	ldw	ra,4(sp)
 200204c:	df000017 	ldw	fp,0(sp)
 2002050:	dec00204 	addi	sp,sp,8
 2002054:	f800283a 	ret

02002058 <CuAssertIntEquals_LineMsg>:

void CuAssertIntEquals_LineMsg(CuTest* tc, const char* file, int line, const char* message, 
	int expected, int actual)
{
 2002058:	deffb904 	addi	sp,sp,-284
 200205c:	dfc04615 	stw	ra,280(sp)
 2002060:	df004515 	stw	fp,276(sp)
 2002064:	df004504 	addi	fp,sp,276
 2002068:	e13ffc15 	stw	r4,-16(fp)
 200206c:	e17ffd15 	stw	r5,-12(fp)
 2002070:	e1bffe15 	stw	r6,-8(fp)
 2002074:	e1ffff15 	stw	r7,-4(fp)
	char buf[STRING_MAX];
	if (expected == actual) return;
 2002078:	e0c00217 	ldw	r3,8(fp)
 200207c:	e0800317 	ldw	r2,12(fp)
 2002080:	18800d26 	beq	r3,r2,20020b8 <CuAssertIntEquals_LineMsg+0x60>
	sprintf(buf, "expected <%d> but was <%d>", expected, actual);
 2002084:	e13fbc04 	addi	r4,fp,-272
 2002088:	014080b4 	movhi	r5,514
 200208c:	2968f504 	addi	r5,r5,-23596
 2002090:	e1800217 	ldw	r6,8(fp)
 2002094:	e1c00317 	ldw	r7,12(fp)
 2002098:	2004eb00 	call	2004eb0 <sprintf>
	CuFail_Line(tc, file, line, message, buf);
 200209c:	e0bfbc04 	addi	r2,fp,-272
 20020a0:	d8800015 	stw	r2,0(sp)
 20020a4:	e13ffc17 	ldw	r4,-16(fp)
 20020a8:	e17ffd17 	ldw	r5,-12(fp)
 20020ac:	e1bffe17 	ldw	r6,-8(fp)
 20020b0:	e1ffff17 	ldw	r7,-4(fp)
 20020b4:	2001e700 	call	2001e70 <CuFail_Line>
}
 20020b8:	e037883a 	mov	sp,fp
 20020bc:	dfc00117 	ldw	ra,4(sp)
 20020c0:	df000017 	ldw	fp,0(sp)
 20020c4:	dec00204 	addi	sp,sp,8
 20020c8:	f800283a 	ret

020020cc <CuAssertDblEquals_LineMsg>:

void CuAssertDblEquals_LineMsg(CuTest* tc, const char* file, int line, const char* message, 
	double expected, double actual, double delta)
{
 20020cc:	deffb804 	addi	sp,sp,-288
 20020d0:	dfc04715 	stw	ra,284(sp)
 20020d4:	df004615 	stw	fp,280(sp)
 20020d8:	df004604 	addi	fp,sp,280
 20020dc:	e13ffc15 	stw	r4,-16(fp)
 20020e0:	e17ffd15 	stw	r5,-12(fp)
 20020e4:	e1bffe15 	stw	r6,-8(fp)
 20020e8:	e1ffff15 	stw	r7,-4(fp)
	char buf[STRING_MAX];
	if (fabs(expected - actual) <= delta) return;
 20020ec:	e1000217 	ldw	r4,8(fp)
 20020f0:	e1400317 	ldw	r5,12(fp)
 20020f4:	e1800417 	ldw	r6,16(fp)
 20020f8:	e1c00517 	ldw	r7,20(fp)
 20020fc:	20034140 	call	2003414 <__subdf3>
 2002100:	1009883a 	mov	r4,r2
 2002104:	180b883a 	mov	r5,r3
 2002108:	200d883a 	mov	r6,r4
 200210c:	280f883a 	mov	r7,r5
 2002110:	01200034 	movhi	r4,32768
 2002114:	213fffc4 	addi	r4,r4,-1
 2002118:	3005883a 	mov	r2,r6
 200211c:	3906703a 	and	r3,r7,r4
 2002120:	1009883a 	mov	r4,r2
 2002124:	180b883a 	mov	r5,r3
 2002128:	e1800617 	ldw	r6,24(fp)
 200212c:	e1c00717 	ldw	r7,28(fp)
 2002130:	20035080 	call	2003508 <__ledf2>
 2002134:	10800050 	cmplti	r2,r2,1
 2002138:	1000111e 	bne	r2,zero,2002180 <CuAssertDblEquals_LineMsg+0xb4>
	sprintf(buf, "expected <%f> but was <%f>", expected, actual); 
 200213c:	e0800417 	ldw	r2,16(fp)
 2002140:	d8800015 	stw	r2,0(sp)
 2002144:	e0800517 	ldw	r2,20(fp)
 2002148:	d8800115 	stw	r2,4(sp)
 200214c:	e13fbc04 	addi	r4,fp,-272
 2002150:	014080b4 	movhi	r5,514
 2002154:	2968fc04 	addi	r5,r5,-23568
 2002158:	e1800217 	ldw	r6,8(fp)
 200215c:	e1c00317 	ldw	r7,12(fp)
 2002160:	2004eb00 	call	2004eb0 <sprintf>

	CuFail_Line(tc, file, line, message, buf);
 2002164:	e0bfbc04 	addi	r2,fp,-272
 2002168:	d8800015 	stw	r2,0(sp)
 200216c:	e13ffc17 	ldw	r4,-16(fp)
 2002170:	e17ffd17 	ldw	r5,-12(fp)
 2002174:	e1bffe17 	ldw	r6,-8(fp)
 2002178:	e1ffff17 	ldw	r7,-4(fp)
 200217c:	2001e700 	call	2001e70 <CuFail_Line>
}
 2002180:	e037883a 	mov	sp,fp
 2002184:	dfc00117 	ldw	ra,4(sp)
 2002188:	df000017 	ldw	fp,0(sp)
 200218c:	dec00204 	addi	sp,sp,8
 2002190:	f800283a 	ret

02002194 <CuAssertPtrEquals_LineMsg>:

void CuAssertPtrEquals_LineMsg(CuTest* tc, const char* file, int line, const char* message, 
	void* expected, void* actual)
{
 2002194:	deffb904 	addi	sp,sp,-284
 2002198:	dfc04615 	stw	ra,280(sp)
 200219c:	df004515 	stw	fp,276(sp)
 20021a0:	df004504 	addi	fp,sp,276
 20021a4:	e13ffc15 	stw	r4,-16(fp)
 20021a8:	e17ffd15 	stw	r5,-12(fp)
 20021ac:	e1bffe15 	stw	r6,-8(fp)
 20021b0:	e1ffff15 	stw	r7,-4(fp)
	char buf[STRING_MAX];
	if (expected == actual) return;
 20021b4:	e0c00217 	ldw	r3,8(fp)
 20021b8:	e0800317 	ldw	r2,12(fp)
 20021bc:	18800d26 	beq	r3,r2,20021f4 <CuAssertPtrEquals_LineMsg+0x60>
	sprintf(buf, "expected pointer <0x%p> but was <0x%p>", expected, actual);
 20021c0:	e13fbc04 	addi	r4,fp,-272
 20021c4:	014080b4 	movhi	r5,514
 20021c8:	29690304 	addi	r5,r5,-23540
 20021cc:	e1800217 	ldw	r6,8(fp)
 20021d0:	e1c00317 	ldw	r7,12(fp)
 20021d4:	2004eb00 	call	2004eb0 <sprintf>
	CuFail_Line(tc, file, line, message, buf);
 20021d8:	e0bfbc04 	addi	r2,fp,-272
 20021dc:	d8800015 	stw	r2,0(sp)
 20021e0:	e13ffc17 	ldw	r4,-16(fp)
 20021e4:	e17ffd17 	ldw	r5,-12(fp)
 20021e8:	e1bffe17 	ldw	r6,-8(fp)
 20021ec:	e1ffff17 	ldw	r7,-4(fp)
 20021f0:	2001e700 	call	2001e70 <CuFail_Line>
}
 20021f4:	e037883a 	mov	sp,fp
 20021f8:	dfc00117 	ldw	ra,4(sp)
 20021fc:	df000017 	ldw	fp,0(sp)
 2002200:	dec00204 	addi	sp,sp,8
 2002204:	f800283a 	ret

02002208 <CuSuiteInit>:
/*-------------------------------------------------------------------------*
 * CuSuite
 *-------------------------------------------------------------------------*/

void CuSuiteInit(CuSuite* testSuite)
{
 2002208:	defffd04 	addi	sp,sp,-12
 200220c:	dfc00215 	stw	ra,8(sp)
 2002210:	df000115 	stw	fp,4(sp)
 2002214:	df000104 	addi	fp,sp,4
 2002218:	e13fff15 	stw	r4,-4(fp)
	testSuite->count = 0;
 200221c:	e0bfff17 	ldw	r2,-4(fp)
 2002220:	10000015 	stw	zero,0(r2)
	testSuite->failCount = 0;
 2002224:	e0bfff17 	ldw	r2,-4(fp)
 2002228:	10040115 	stw	zero,4100(r2)
        memset(testSuite->list, 0, sizeof(testSuite->list));
 200222c:	e0bfff17 	ldw	r2,-4(fp)
 2002230:	10800104 	addi	r2,r2,4
 2002234:	1009883a 	mov	r4,r2
 2002238:	01840004 	movi	r6,4096
 200223c:	000b883a 	mov	r5,zero
 2002240:	20045f40 	call	20045f4 <memset>
}
 2002244:	e037883a 	mov	sp,fp
 2002248:	dfc00117 	ldw	ra,4(sp)
 200224c:	df000017 	ldw	fp,0(sp)
 2002250:	dec00204 	addi	sp,sp,8
 2002254:	f800283a 	ret

02002258 <CuSuiteNew>:

CuSuite* CuSuiteNew(void)
{
 2002258:	defffd04 	addi	sp,sp,-12
 200225c:	dfc00215 	stw	ra,8(sp)
 2002260:	df000115 	stw	fp,4(sp)
 2002264:	df000104 	addi	fp,sp,4
	CuSuite* testSuite = CU_ALLOC(CuSuite);
 2002268:	01040204 	movi	r4,4104
 200226c:	2003d200 	call	2003d20 <malloc>
 2002270:	e0bfff15 	stw	r2,-4(fp)
	CuSuiteInit(testSuite);
 2002274:	e13fff17 	ldw	r4,-4(fp)
 2002278:	20022080 	call	2002208 <CuSuiteInit>
	return testSuite;
 200227c:	e0bfff17 	ldw	r2,-4(fp)
}
 2002280:	e037883a 	mov	sp,fp
 2002284:	dfc00117 	ldw	ra,4(sp)
 2002288:	df000017 	ldw	fp,0(sp)
 200228c:	dec00204 	addi	sp,sp,8
 2002290:	f800283a 	ret

02002294 <CuSuiteDelete>:

void CuSuiteDelete(CuSuite *testSuite)
{
 2002294:	defffc04 	addi	sp,sp,-16
 2002298:	dfc00315 	stw	ra,12(sp)
 200229c:	df000215 	stw	fp,8(sp)
 20022a0:	df000204 	addi	fp,sp,8
 20022a4:	e13fff15 	stw	r4,-4(fp)
        unsigned int n;
        for (n=0; n < MAX_TEST_CASES; n++)
 20022a8:	e03ffe15 	stw	zero,-8(fp)
 20022ac:	00001406 	br	2002300 <CuSuiteDelete+0x6c>
        {
                if (testSuite->list[n])
 20022b0:	e0bffe17 	ldw	r2,-8(fp)
 20022b4:	e0ffff17 	ldw	r3,-4(fp)
 20022b8:	1085883a 	add	r2,r2,r2
 20022bc:	1085883a 	add	r2,r2,r2
 20022c0:	10c5883a 	add	r2,r2,r3
 20022c4:	10800104 	addi	r2,r2,4
 20022c8:	10800017 	ldw	r2,0(r2)
 20022cc:	1005003a 	cmpeq	r2,r2,zero
 20022d0:	1000081e 	bne	r2,zero,20022f4 <CuSuiteDelete+0x60>
                {
                        CuTestDelete(testSuite->list[n]);
 20022d4:	e0bffe17 	ldw	r2,-8(fp)
 20022d8:	e0ffff17 	ldw	r3,-4(fp)
 20022dc:	1085883a 	add	r2,r2,r2
 20022e0:	1085883a 	add	r2,r2,r2
 20022e4:	10c5883a 	add	r2,r2,r3
 20022e8:	10800104 	addi	r2,r2,4
 20022ec:	11000017 	ldw	r4,0(r2)
 20022f0:	2001d240 	call	2001d24 <CuTestDelete>
}

void CuSuiteDelete(CuSuite *testSuite)
{
        unsigned int n;
        for (n=0; n < MAX_TEST_CASES; n++)
 20022f4:	e0bffe17 	ldw	r2,-8(fp)
 20022f8:	10800044 	addi	r2,r2,1
 20022fc:	e0bffe15 	stw	r2,-8(fp)
 2002300:	e0bffe17 	ldw	r2,-8(fp)
 2002304:	10810030 	cmpltui	r2,r2,1024
 2002308:	103fe91e 	bne	r2,zero,20022b0 <CuSuiteDelete+0x1c>
                if (testSuite->list[n])
                {
                        CuTestDelete(testSuite->list[n]);
                }
        }
        free(testSuite);
 200230c:	e13fff17 	ldw	r4,-4(fp)
 2002310:	2003d0c0 	call	2003d0c <free>

}
 2002314:	e037883a 	mov	sp,fp
 2002318:	dfc00117 	ldw	ra,4(sp)
 200231c:	df000017 	ldw	fp,0(sp)
 2002320:	dec00204 	addi	sp,sp,8
 2002324:	f800283a 	ret

02002328 <CuSuiteAdd>:

void CuSuiteAdd(CuSuite* testSuite, CuTest *testCase)
{
 2002328:	defffc04 	addi	sp,sp,-16
 200232c:	dfc00315 	stw	ra,12(sp)
 2002330:	df000215 	stw	fp,8(sp)
 2002334:	df000204 	addi	fp,sp,8
 2002338:	e13ffe15 	stw	r4,-8(fp)
 200233c:	e17fff15 	stw	r5,-4(fp)
	assert(testSuite->count < MAX_TEST_CASES);
 2002340:	e0bffe17 	ldw	r2,-8(fp)
 2002344:	10800017 	ldw	r2,0(r2)
 2002348:	10810010 	cmplti	r2,r2,1024
 200234c:	1000081e 	bne	r2,zero,2002370 <CuSuiteAdd+0x48>
 2002350:	010080b4 	movhi	r4,514
 2002354:	21291004 	addi	r4,r4,-23488
 2002358:	014043c4 	movi	r5,271
 200235c:	018080b4 	movhi	r6,514
 2002360:	31a90d04 	addi	r6,r6,-23500
 2002364:	01c080b4 	movhi	r7,514
 2002368:	39e91404 	addi	r7,r7,-23472
 200236c:	2003c280 	call	2003c28 <__assert_func>
	testSuite->list[testSuite->count] = testCase;
 2002370:	e0bffe17 	ldw	r2,-8(fp)
 2002374:	10800017 	ldw	r2,0(r2)
 2002378:	e0fffe17 	ldw	r3,-8(fp)
 200237c:	1085883a 	add	r2,r2,r2
 2002380:	1085883a 	add	r2,r2,r2
 2002384:	10c5883a 	add	r2,r2,r3
 2002388:	10c00104 	addi	r3,r2,4
 200238c:	e0bfff17 	ldw	r2,-4(fp)
 2002390:	18800015 	stw	r2,0(r3)
	testSuite->count++;
 2002394:	e0bffe17 	ldw	r2,-8(fp)
 2002398:	10800017 	ldw	r2,0(r2)
 200239c:	10c00044 	addi	r3,r2,1
 20023a0:	e0bffe17 	ldw	r2,-8(fp)
 20023a4:	10c00015 	stw	r3,0(r2)
}
 20023a8:	e037883a 	mov	sp,fp
 20023ac:	dfc00117 	ldw	ra,4(sp)
 20023b0:	df000017 	ldw	fp,0(sp)
 20023b4:	dec00204 	addi	sp,sp,8
 20023b8:	f800283a 	ret

020023bc <CuSuiteAddSuite>:

void CuSuiteAddSuite(CuSuite* testSuite, CuSuite* testSuite2)
{
 20023bc:	defffa04 	addi	sp,sp,-24
 20023c0:	dfc00515 	stw	ra,20(sp)
 20023c4:	df000415 	stw	fp,16(sp)
 20023c8:	df000404 	addi	fp,sp,16
 20023cc:	e13ffe15 	stw	r4,-8(fp)
 20023d0:	e17fff15 	stw	r5,-4(fp)
	int i;
	for (i = 0 ; i < testSuite2->count ; ++i)
 20023d4:	e03ffd15 	stw	zero,-12(fp)
 20023d8:	00000e06 	br	2002414 <CuSuiteAddSuite+0x58>
	{
		CuTest* testCase = testSuite2->list[i];
 20023dc:	e0bffd17 	ldw	r2,-12(fp)
 20023e0:	e0ffff17 	ldw	r3,-4(fp)
 20023e4:	1085883a 	add	r2,r2,r2
 20023e8:	1085883a 	add	r2,r2,r2
 20023ec:	10c5883a 	add	r2,r2,r3
 20023f0:	10800104 	addi	r2,r2,4
 20023f4:	10800017 	ldw	r2,0(r2)
 20023f8:	e0bffc15 	stw	r2,-16(fp)
		CuSuiteAdd(testSuite, testCase);
 20023fc:	e13ffe17 	ldw	r4,-8(fp)
 2002400:	e17ffc17 	ldw	r5,-16(fp)
 2002404:	20023280 	call	2002328 <CuSuiteAdd>
}

void CuSuiteAddSuite(CuSuite* testSuite, CuSuite* testSuite2)
{
	int i;
	for (i = 0 ; i < testSuite2->count ; ++i)
 2002408:	e0bffd17 	ldw	r2,-12(fp)
 200240c:	10800044 	addi	r2,r2,1
 2002410:	e0bffd15 	stw	r2,-12(fp)
 2002414:	e0bfff17 	ldw	r2,-4(fp)
 2002418:	10c00017 	ldw	r3,0(r2)
 200241c:	e0bffd17 	ldw	r2,-12(fp)
 2002420:	10ffee16 	blt	r2,r3,20023dc <CuSuiteAddSuite+0x20>
	{
		CuTest* testCase = testSuite2->list[i];
		CuSuiteAdd(testSuite, testCase);
	}
}
 2002424:	e037883a 	mov	sp,fp
 2002428:	dfc00117 	ldw	ra,4(sp)
 200242c:	df000017 	ldw	fp,0(sp)
 2002430:	dec00204 	addi	sp,sp,8
 2002434:	f800283a 	ret

02002438 <CuSuiteRun>:

void CuSuiteRun(CuSuite* testSuite)
{
 2002438:	defffb04 	addi	sp,sp,-20
 200243c:	dfc00415 	stw	ra,16(sp)
 2002440:	df000315 	stw	fp,12(sp)
 2002444:	df000304 	addi	fp,sp,12
 2002448:	e13fff15 	stw	r4,-4(fp)
	int i;
	for (i = 0 ; i < testSuite->count ; ++i)
 200244c:	e03ffe15 	stw	zero,-8(fp)
 2002450:	00001606 	br	20024ac <CuSuiteRun+0x74>
	{
		CuTest* testCase = testSuite->list[i];
 2002454:	e0bffe17 	ldw	r2,-8(fp)
 2002458:	e0ffff17 	ldw	r3,-4(fp)
 200245c:	1085883a 	add	r2,r2,r2
 2002460:	1085883a 	add	r2,r2,r2
 2002464:	10c5883a 	add	r2,r2,r3
 2002468:	10800104 	addi	r2,r2,4
 200246c:	10800017 	ldw	r2,0(r2)
 2002470:	e0bffd15 	stw	r2,-12(fp)
		CuTestRun(testCase);
 2002474:	e13ffd17 	ldw	r4,-12(fp)
 2002478:	2001d6c0 	call	2001d6c <CuTestRun>
		if (testCase->failed) { testSuite->failCount += 1; }
 200247c:	e0bffd17 	ldw	r2,-12(fp)
 2002480:	10800217 	ldw	r2,8(r2)
 2002484:	1005003a 	cmpeq	r2,r2,zero
 2002488:	1000051e 	bne	r2,zero,20024a0 <CuSuiteRun+0x68>
 200248c:	e0bfff17 	ldw	r2,-4(fp)
 2002490:	10840117 	ldw	r2,4100(r2)
 2002494:	10c00044 	addi	r3,r2,1
 2002498:	e0bfff17 	ldw	r2,-4(fp)
 200249c:	10c40115 	stw	r3,4100(r2)
}

void CuSuiteRun(CuSuite* testSuite)
{
	int i;
	for (i = 0 ; i < testSuite->count ; ++i)
 20024a0:	e0bffe17 	ldw	r2,-8(fp)
 20024a4:	10800044 	addi	r2,r2,1
 20024a8:	e0bffe15 	stw	r2,-8(fp)
 20024ac:	e0bfff17 	ldw	r2,-4(fp)
 20024b0:	10c00017 	ldw	r3,0(r2)
 20024b4:	e0bffe17 	ldw	r2,-8(fp)
 20024b8:	10ffe616 	blt	r2,r3,2002454 <CuSuiteRun+0x1c>
	{
		CuTest* testCase = testSuite->list[i];
		CuTestRun(testCase);
		if (testCase->failed) { testSuite->failCount += 1; }
	}
}
 20024bc:	e037883a 	mov	sp,fp
 20024c0:	dfc00117 	ldw	ra,4(sp)
 20024c4:	df000017 	ldw	fp,0(sp)
 20024c8:	dec00204 	addi	sp,sp,8
 20024cc:	f800283a 	ret

020024d0 <CuSuiteSummary>:

void CuSuiteSummary(CuSuite* testSuite, CuString* summary)
{
 20024d0:	defff904 	addi	sp,sp,-28
 20024d4:	dfc00615 	stw	ra,24(sp)
 20024d8:	df000515 	stw	fp,20(sp)
 20024dc:	df000504 	addi	fp,sp,20
 20024e0:	e13ffd15 	stw	r4,-12(fp)
 20024e4:	e17ffe15 	stw	r5,-8(fp)
	int i;
	for (i = 0 ; i < testSuite->count ; ++i)
 20024e8:	e03ffc15 	stw	zero,-16(fp)
 20024ec:	00001906 	br	2002554 <CuSuiteSummary+0x84>
	{
		CuTest* testCase = testSuite->list[i];
 20024f0:	e0bffc17 	ldw	r2,-16(fp)
 20024f4:	e0fffd17 	ldw	r3,-12(fp)
 20024f8:	1085883a 	add	r2,r2,r2
 20024fc:	1085883a 	add	r2,r2,r2
 2002500:	10c5883a 	add	r2,r2,r3
 2002504:	10800104 	addi	r2,r2,4
 2002508:	10800017 	ldw	r2,0(r2)
 200250c:	e0bffb15 	stw	r2,-20(fp)
		CuStringAppend(summary, testCase->failed ? "F" : ".");
 2002510:	e0bffb17 	ldw	r2,-20(fp)
 2002514:	10800217 	ldw	r2,8(r2)
 2002518:	1005003a 	cmpeq	r2,r2,zero
 200251c:	1000041e 	bne	r2,zero,2002530 <CuSuiteSummary+0x60>
 2002520:	008080b4 	movhi	r2,514
 2002524:	10a91d04 	addi	r2,r2,-23436
 2002528:	e0bfff15 	stw	r2,-4(fp)
 200252c:	00000306 	br	200253c <CuSuiteSummary+0x6c>
 2002530:	008080b4 	movhi	r2,514
 2002534:	10a91e04 	addi	r2,r2,-23432
 2002538:	e0bfff15 	stw	r2,-4(fp)
 200253c:	e13ffe17 	ldw	r4,-8(fp)
 2002540:	e17fff17 	ldw	r5,-4(fp)
 2002544:	2001a300 	call	2001a30 <CuStringAppend>
}

void CuSuiteSummary(CuSuite* testSuite, CuString* summary)
{
	int i;
	for (i = 0 ; i < testSuite->count ; ++i)
 2002548:	e0bffc17 	ldw	r2,-16(fp)
 200254c:	10800044 	addi	r2,r2,1
 2002550:	e0bffc15 	stw	r2,-16(fp)
 2002554:	e0bffd17 	ldw	r2,-12(fp)
 2002558:	10c00017 	ldw	r3,0(r2)
 200255c:	e0bffc17 	ldw	r2,-16(fp)
 2002560:	10ffe316 	blt	r2,r3,20024f0 <CuSuiteSummary+0x20>
	{
		CuTest* testCase = testSuite->list[i];
		CuStringAppend(summary, testCase->failed ? "F" : ".");
	}
	CuStringAppend(summary, "\n\n");
 2002564:	e13ffe17 	ldw	r4,-8(fp)
 2002568:	014080b4 	movhi	r5,514
 200256c:	29691f04 	addi	r5,r5,-23428
 2002570:	2001a300 	call	2001a30 <CuStringAppend>
}
 2002574:	e037883a 	mov	sp,fp
 2002578:	dfc00117 	ldw	ra,4(sp)
 200257c:	df000017 	ldw	fp,0(sp)
 2002580:	dec00204 	addi	sp,sp,8
 2002584:	f800283a 	ret

02002588 <CuSuiteDetails>:

void CuSuiteDetails(CuSuite* testSuite, CuString* details)
{
 2002588:	defff504 	addi	sp,sp,-44
 200258c:	dfc00a15 	stw	ra,40(sp)
 2002590:	df000915 	stw	fp,36(sp)
 2002594:	df000904 	addi	fp,sp,36
 2002598:	e13ffd15 	stw	r4,-12(fp)
 200259c:	e17ffe15 	stw	r5,-8(fp)
	int i;
	int failCount = 0;
 20025a0:	e03ffb15 	stw	zero,-20(fp)

	if (testSuite->failCount == 0)
 20025a4:	e0bffd17 	ldw	r2,-12(fp)
 20025a8:	10840117 	ldw	r2,4100(r2)
 20025ac:	1004c03a 	cmpne	r2,r2,zero
 20025b0:	1000191e 	bne	r2,zero,2002618 <CuSuiteDetails+0x90>
	{
		int passCount = testSuite->count - testSuite->failCount;
 20025b4:	e0bffd17 	ldw	r2,-12(fp)
 20025b8:	10c00017 	ldw	r3,0(r2)
 20025bc:	e0bffd17 	ldw	r2,-12(fp)
 20025c0:	10840117 	ldw	r2,4100(r2)
 20025c4:	1885c83a 	sub	r2,r3,r2
 20025c8:	e0bffa15 	stw	r2,-24(fp)
		const char* testWord = passCount == 1 ? "test" : "tests";
 20025cc:	e0bffa17 	ldw	r2,-24(fp)
 20025d0:	10800058 	cmpnei	r2,r2,1
 20025d4:	1000041e 	bne	r2,zero,20025e8 <CuSuiteDetails+0x60>
 20025d8:	008080b4 	movhi	r2,514
 20025dc:	10a92004 	addi	r2,r2,-23424
 20025e0:	e0bfff15 	stw	r2,-4(fp)
 20025e4:	00000306 	br	20025f4 <CuSuiteDetails+0x6c>
 20025e8:	008080b4 	movhi	r2,514
 20025ec:	10a92204 	addi	r2,r2,-23416
 20025f0:	e0bfff15 	stw	r2,-4(fp)
 20025f4:	e0bfff17 	ldw	r2,-4(fp)
 20025f8:	e0bff915 	stw	r2,-28(fp)
		CuStringAppendFormat(details, "OK (%d %s)\n", passCount, testWord);
 20025fc:	e13ffe17 	ldw	r4,-8(fp)
 2002600:	014080b4 	movhi	r5,514
 2002604:	29692404 	addi	r5,r5,-23408
 2002608:	e1bffa17 	ldw	r6,-24(fp)
 200260c:	e1fff917 	ldw	r7,-28(fp)
 2002610:	2001b280 	call	2001b28 <CuStringAppendFormat>
 2002614:	00004a06 	br	2002740 <CuSuiteDetails+0x1b8>
	}
	else
	{
		if (testSuite->failCount == 1)
 2002618:	e0bffd17 	ldw	r2,-12(fp)
 200261c:	10840117 	ldw	r2,4100(r2)
 2002620:	10800058 	cmpnei	r2,r2,1
 2002624:	1000051e 	bne	r2,zero,200263c <CuSuiteDetails+0xb4>
			CuStringAppend(details, "There was 1 failure:\n");
 2002628:	e13ffe17 	ldw	r4,-8(fp)
 200262c:	014080b4 	movhi	r5,514
 2002630:	29692704 	addi	r5,r5,-23396
 2002634:	2001a300 	call	2001a30 <CuStringAppend>
 2002638:	00000606 	br	2002654 <CuSuiteDetails+0xcc>
		else
			CuStringAppendFormat(details, "There were %d failures:\n", testSuite->failCount);
 200263c:	e0bffd17 	ldw	r2,-12(fp)
 2002640:	11840117 	ldw	r6,4100(r2)
 2002644:	e13ffe17 	ldw	r4,-8(fp)
 2002648:	014080b4 	movhi	r5,514
 200264c:	29692d04 	addi	r5,r5,-23372
 2002650:	2001b280 	call	2001b28 <CuStringAppendFormat>

		for (i = 0 ; i < testSuite->count ; ++i)
 2002654:	e03ffc15 	stw	zero,-16(fp)
 2002658:	00001c06 	br	20026cc <CuSuiteDetails+0x144>
		{
			CuTest* testCase = testSuite->list[i];
 200265c:	e0bffc17 	ldw	r2,-16(fp)
 2002660:	e0fffd17 	ldw	r3,-12(fp)
 2002664:	1085883a 	add	r2,r2,r2
 2002668:	1085883a 	add	r2,r2,r2
 200266c:	10c5883a 	add	r2,r2,r3
 2002670:	10800104 	addi	r2,r2,4
 2002674:	10800017 	ldw	r2,0(r2)
 2002678:	e0bff815 	stw	r2,-32(fp)
			if (testCase->failed)
 200267c:	e0bff817 	ldw	r2,-32(fp)
 2002680:	10800217 	ldw	r2,8(r2)
 2002684:	1005003a 	cmpeq	r2,r2,zero
 2002688:	10000d1e 	bne	r2,zero,20026c0 <CuSuiteDetails+0x138>
			{
				failCount++;
 200268c:	e0bffb17 	ldw	r2,-20(fp)
 2002690:	10800044 	addi	r2,r2,1
 2002694:	e0bffb15 	stw	r2,-20(fp)
				CuStringAppendFormat(details, "%d) %s: %s\n",
 2002698:	e0bff817 	ldw	r2,-32(fp)
 200269c:	11c00017 	ldw	r7,0(r2)
 20026a0:	e0bff817 	ldw	r2,-32(fp)
 20026a4:	10800417 	ldw	r2,16(r2)
 20026a8:	d8800015 	stw	r2,0(sp)
 20026ac:	e13ffe17 	ldw	r4,-8(fp)
 20026b0:	014080b4 	movhi	r5,514
 20026b4:	29693404 	addi	r5,r5,-23344
 20026b8:	e1bffb17 	ldw	r6,-20(fp)
 20026bc:	2001b280 	call	2001b28 <CuStringAppendFormat>
		if (testSuite->failCount == 1)
			CuStringAppend(details, "There was 1 failure:\n");
		else
			CuStringAppendFormat(details, "There were %d failures:\n", testSuite->failCount);

		for (i = 0 ; i < testSuite->count ; ++i)
 20026c0:	e0bffc17 	ldw	r2,-16(fp)
 20026c4:	10800044 	addi	r2,r2,1
 20026c8:	e0bffc15 	stw	r2,-16(fp)
 20026cc:	e0bffd17 	ldw	r2,-12(fp)
 20026d0:	10c00017 	ldw	r3,0(r2)
 20026d4:	e0bffc17 	ldw	r2,-16(fp)
 20026d8:	10ffe016 	blt	r2,r3,200265c <CuSuiteDetails+0xd4>
				failCount++;
				CuStringAppendFormat(details, "%d) %s: %s\n",
					failCount, testCase->name, testCase->message);
			}
		}
		CuStringAppend(details, "\n!!!FAILURES!!!\n");
 20026dc:	e13ffe17 	ldw	r4,-8(fp)
 20026e0:	014080b4 	movhi	r5,514
 20026e4:	29693704 	addi	r5,r5,-23332
 20026e8:	2001a300 	call	2001a30 <CuStringAppend>

		CuStringAppendFormat(details, "Runs: %d ",   testSuite->count);
 20026ec:	e0bffd17 	ldw	r2,-12(fp)
 20026f0:	11800017 	ldw	r6,0(r2)
 20026f4:	e13ffe17 	ldw	r4,-8(fp)
 20026f8:	014080b4 	movhi	r5,514
 20026fc:	29693c04 	addi	r5,r5,-23312
 2002700:	2001b280 	call	2001b28 <CuStringAppendFormat>
		CuStringAppendFormat(details, "Passes: %d ", testSuite->count - testSuite->failCount);
 2002704:	e0bffd17 	ldw	r2,-12(fp)
 2002708:	10c00017 	ldw	r3,0(r2)
 200270c:	e0bffd17 	ldw	r2,-12(fp)
 2002710:	10840117 	ldw	r2,4100(r2)
 2002714:	188dc83a 	sub	r6,r3,r2
 2002718:	e13ffe17 	ldw	r4,-8(fp)
 200271c:	014080b4 	movhi	r5,514
 2002720:	29693f04 	addi	r5,r5,-23300
 2002724:	2001b280 	call	2001b28 <CuStringAppendFormat>
		CuStringAppendFormat(details, "Fails: %d\n",  testSuite->failCount);
 2002728:	e0bffd17 	ldw	r2,-12(fp)
 200272c:	11840117 	ldw	r6,4100(r2)
 2002730:	e13ffe17 	ldw	r4,-8(fp)
 2002734:	014080b4 	movhi	r5,514
 2002738:	29694204 	addi	r5,r5,-23288
 200273c:	2001b280 	call	2001b28 <CuStringAppendFormat>
	}
}
 2002740:	e037883a 	mov	sp,fp
 2002744:	dfc00117 	ldw	ra,4(sp)
 2002748:	df000017 	ldw	fp,0(sp)
 200274c:	dec00204 	addi	sp,sp,8
 2002750:	f800283a 	ret

02002754 <Test_int16U_changed_by_threshold>:
//}

///*-------------------------------------------------------------------------*
// * util Test
// *-------------------------------------------------------------------------*/
void Test_int16U_changed_by_threshold(CuTest* tc){
 2002754:	defffb04 	addi	sp,sp,-20
 2002758:	dfc00415 	stw	ra,16(sp)
 200275c:	df000315 	stw	fp,12(sp)
 2002760:	df000304 	addi	fp,sp,12
 2002764:	e13fff15 	stw	r4,-4(fp)
	BOOL larger = int32U_changed_by_threshold(CHANGED_BY_THRESHOLD_INPUT_2,CHANGED_BY_THRESHOLD_INPUT_1,APPS_VALUE_CHANGE_THRESHOLD);
 2002768:	01007d04 	movi	r4,500
 200276c:	01401904 	movi	r5,100
 2002770:	01800784 	movi	r6,30
 2002774:	2002d540 	call	2002d54 <int32U_changed_by_threshold>
 2002778:	e0bffe85 	stb	r2,-6(fp)
	CuAssert(tc,"changed", larger == TRUE);
 200277c:	e0bffe83 	ldbu	r2,-6(fp)
 2002780:	10803fe0 	cmpeqi	r2,r2,255
 2002784:	d8800015 	stw	r2,0(sp)
 2002788:	e13fff17 	ldw	r4,-4(fp)
 200278c:	014080b4 	movhi	r5,514
 2002790:	29694504 	addi	r5,r5,-23276
 2002794:	018012c4 	movi	r6,75
 2002798:	01c080b4 	movhi	r7,514
 200279c:	39e94a04 	addi	r7,r7,-23256
 20027a0:	2001ef40 	call	2001ef4 <CuAssert_Line>
	BOOL smaller = int32U_changed_by_threshold(CHANGED_BY_THRESHOLD_INPUT_1,CHANGED_BY_THRESHOLD_INPUT_2,APPS_VALUE_CHANGE_THRESHOLD);
 20027a4:	01001904 	movi	r4,100
 20027a8:	01407d04 	movi	r5,500
 20027ac:	01800784 	movi	r6,30
 20027b0:	2002d540 	call	2002d54 <int32U_changed_by_threshold>
 20027b4:	e0bffe45 	stb	r2,-7(fp)
	CuAssert(tc,"changed", smaller == TRUE);
 20027b8:	e0bffe43 	ldbu	r2,-7(fp)
 20027bc:	10803fe0 	cmpeqi	r2,r2,255
 20027c0:	d8800015 	stw	r2,0(sp)
 20027c4:	e13fff17 	ldw	r4,-4(fp)
 20027c8:	014080b4 	movhi	r5,514
 20027cc:	29694504 	addi	r5,r5,-23276
 20027d0:	01801344 	movi	r6,77
 20027d4:	01c080b4 	movhi	r7,514
 20027d8:	39e94a04 	addi	r7,r7,-23256
 20027dc:	2001ef40 	call	2001ef4 <CuAssert_Line>
	BOOL same = int32U_changed_by_threshold(CHANGED_BY_THRESHOLD_INPUT_3,CHANGED_BY_THRESHOLD_INPUT_1,APPS_VALUE_CHANGE_THRESHOLD);
 20027e0:	01002584 	movi	r4,150
 20027e4:	01401904 	movi	r5,100
 20027e8:	01800784 	movi	r6,30
 20027ec:	2002d540 	call	2002d54 <int32U_changed_by_threshold>
 20027f0:	e0bffe05 	stb	r2,-8(fp)
	CuAssert(tc,"not changed", same == FALSE);
 20027f4:	e0bffe03 	ldbu	r2,-8(fp)
 20027f8:	1005003a 	cmpeq	r2,r2,zero
 20027fc:	d8800015 	stw	r2,0(sp)
 2002800:	e13fff17 	ldw	r4,-4(fp)
 2002804:	014080b4 	movhi	r5,514
 2002808:	29694504 	addi	r5,r5,-23276
 200280c:	018013c4 	movi	r6,79
 2002810:	01c080b4 	movhi	r7,514
 2002814:	39e94c04 	addi	r7,r7,-23248
 2002818:	2001ef40 	call	2001ef4 <CuAssert_Line>
}
 200281c:	e037883a 	mov	sp,fp
 2002820:	dfc00117 	ldw	ra,4(sp)
 2002824:	df000017 	ldw	fp,0(sp)
 2002828:	dec00204 	addi	sp,sp,8
 200282c:	f800283a 	ret

02002830 <Test_int16U_differ_by_percent>:

void Test_int16U_differ_by_percent(CuTest* tc){
 2002830:	defffb04 	addi	sp,sp,-20
 2002834:	dfc00415 	stw	ra,16(sp)
 2002838:	df000315 	stw	fp,12(sp)
 200283c:	df000304 	addi	fp,sp,12
 2002840:	e13fff15 	stw	r4,-4(fp)
	BOOL bothZero = int32U_differ_by_percent(DIFFER_BY_PERCENT_INPUT_1,DIFFER_BY_PERCENT_INPUT_1,TPS_VALUE_DIFFERENCE_PERCENT,PERCENT_DIFF_ACCURACY);
 2002844:	0009883a 	mov	r4,zero
 2002848:	000b883a 	mov	r5,zero
 200284c:	01800284 	movi	r6,10
 2002850:	01c003f4 	movhi	r7,15
 2002854:	39d09004 	addi	r7,r7,16960
 2002858:	2002ddc0 	call	2002ddc <int32U_differ_by_percent>
 200285c:	e0bffe85 	stb	r2,-6(fp)
	CuAssert(tc,"agree", bothZero == FALSE);
 2002860:	e0bffe83 	ldbu	r2,-6(fp)
 2002864:	1005003a 	cmpeq	r2,r2,zero
 2002868:	d8800015 	stw	r2,0(sp)
 200286c:	e13fff17 	ldw	r4,-4(fp)
 2002870:	014080b4 	movhi	r5,514
 2002874:	29694504 	addi	r5,r5,-23276
 2002878:	01801504 	movi	r6,84
 200287c:	01c080b4 	movhi	r7,514
 2002880:	39e94f04 	addi	r7,r7,-23236
 2002884:	2001ef40 	call	2001ef4 <CuAssert_Line>
	BOOL smallerZero = int32U_differ_by_percent(DIFFER_BY_PERCENT_INPUT_1,DIFFER_BY_PERCENT_INPUT_4,TPS_VALUE_DIFFERENCE_PERCENT,PERCENT_DIFF_ACCURACY);
 2002888:	0009883a 	mov	r4,zero
 200288c:	014003c4 	movi	r5,15
 2002890:	01800284 	movi	r6,10
 2002894:	01c003f4 	movhi	r7,15
 2002898:	39d09004 	addi	r7,r7,16960
 200289c:	2002ddc0 	call	2002ddc <int32U_differ_by_percent>
 20028a0:	e0bffe45 	stb	r2,-7(fp)
	CuAssert(tc,"agree", smallerZero == TRUE);
 20028a4:	e0bffe43 	ldbu	r2,-7(fp)
 20028a8:	10803fe0 	cmpeqi	r2,r2,255
 20028ac:	d8800015 	stw	r2,0(sp)
 20028b0:	e13fff17 	ldw	r4,-4(fp)
 20028b4:	014080b4 	movhi	r5,514
 20028b8:	29694504 	addi	r5,r5,-23276
 20028bc:	01801584 	movi	r6,86
 20028c0:	01c080b4 	movhi	r7,514
 20028c4:	39e94f04 	addi	r7,r7,-23236
 20028c8:	2001ef40 	call	2001ef4 <CuAssert_Line>
	BOOL twiceLarger = int32U_differ_by_percent(DIFFER_BY_PERCENT_INPUT_3,DIFFER_BY_PERCENT_INPUT_4,TPS_VALUE_DIFFERENCE_PERCENT,PERCENT_DIFF_ACCURACY);
 20028cc:	01000284 	movi	r4,10
 20028d0:	014003c4 	movi	r5,15
 20028d4:	01800284 	movi	r6,10
 20028d8:	01c003f4 	movhi	r7,15
 20028dc:	39d09004 	addi	r7,r7,16960
 20028e0:	2002ddc0 	call	2002ddc <int32U_differ_by_percent>
 20028e4:	e0bffe05 	stb	r2,-8(fp)
	CuAssert(tc,"not agree", twiceLarger == TRUE);
 20028e8:	e0bffe03 	ldbu	r2,-8(fp)
 20028ec:	10803fe0 	cmpeqi	r2,r2,255
 20028f0:	d8800015 	stw	r2,0(sp)
 20028f4:	e13fff17 	ldw	r4,-4(fp)
 20028f8:	014080b4 	movhi	r5,514
 20028fc:	29694504 	addi	r5,r5,-23276
 2002900:	01801604 	movi	r6,88
 2002904:	01c080b4 	movhi	r7,514
 2002908:	39e95104 	addi	r7,r7,-23228
 200290c:	2001ef40 	call	2001ef4 <CuAssert_Line>
}
 2002910:	e037883a 	mov	sp,fp
 2002914:	dfc00117 	ldw	ra,4(sp)
 2002918:	df000017 	ldw	fp,0(sp)
 200291c:	dec00204 	addi	sp,sp,8
 2002920:	f800283a 	ret

02002924 <CuGetSuite>:

/*-------------------------------------------------------------------------*
 * main
 *-------------------------------------------------------------------------*/

CuSuite* CuGetSuite(void){
 2002924:	defffd04 	addi	sp,sp,-12
 2002928:	dfc00215 	stw	ra,8(sp)
 200292c:	df000115 	stw	fp,4(sp)
 2002930:	df000104 	addi	fp,sp,4
	CuSuite* suite = CuSuiteNew();
 2002934:	20022580 	call	2002258 <CuSuiteNew>
 2002938:	e0bfff15 	stw	r2,-4(fp)
//	SUITE_ADD_TEST(suite, Test_get_new_tps_reading_sem);
//	SUITE_ADD_TEST(suite, Test_get_motor_cmd_q);
//	SUITE_ADD_TEST(suite, Test_get_expected_tps_reading);
//	SUITE_ADD_TEST(suite, Test_set_new_motor_position);
//	SUITE_ADD_TEST(suite, Test_get_failure_msg_q);
	SUITE_ADD_TEST(suite, Test_int16U_changed_by_threshold);
 200293c:	010080b4 	movhi	r4,514
 2002940:	21295404 	addi	r4,r4,-23216
 2002944:	01408034 	movhi	r5,512
 2002948:	2949d504 	addi	r5,r5,10068
 200294c:	2001cd80 	call	2001cd8 <CuTestNew>
 2002950:	100b883a 	mov	r5,r2
 2002954:	e13fff17 	ldw	r4,-4(fp)
 2002958:	20023280 	call	2002328 <CuSuiteAdd>
	SUITE_ADD_TEST(suite, Test_int16U_differ_by_percent);
 200295c:	010080b4 	movhi	r4,514
 2002960:	21295d04 	addi	r4,r4,-23180
 2002964:	01408034 	movhi	r5,512
 2002968:	294a0c04 	addi	r5,r5,10288
 200296c:	2001cd80 	call	2001cd8 <CuTestNew>
 2002970:	100b883a 	mov	r5,r2
 2002974:	e13fff17 	ldw	r4,-4(fp)
 2002978:	20023280 	call	2002328 <CuSuiteAdd>

	return suite;
 200297c:	e0bfff17 	ldw	r2,-4(fp)
}
 2002980:	e037883a 	mov	sp,fp
 2002984:	dfc00117 	ldw	ra,4(sp)
 2002988:	df000017 	ldw	fp,0(sp)
 200298c:	dec00204 	addi	sp,sp,8
 2002990:	f800283a 	ret

02002994 <run_all_unit_tests>:

int run_all_unit_tests(void){
 2002994:	defffc04 	addi	sp,sp,-16
 2002998:	dfc00315 	stw	ra,12(sp)
 200299c:	df000215 	stw	fp,8(sp)
 20029a0:	df000204 	addi	fp,sp,8
	CuSuite* suite = CuSuiteNew();
 20029a4:	20022580 	call	2002258 <CuSuiteNew>
 20029a8:	e0bfff15 	stw	r2,-4(fp)
	CuString* output;
	CuSuiteAddSuite(suite, CuGetSuite());
 20029ac:	20029240 	call	2002924 <CuGetSuite>
 20029b0:	100b883a 	mov	r5,r2
 20029b4:	e13fff17 	ldw	r4,-4(fp)
 20029b8:	20023bc0 	call	20023bc <CuSuiteAddSuite>
	CuStringInit(output);
 20029bc:	e13ffe17 	ldw	r4,-8(fp)
 20029c0:	20018c00 	call	20018c0 <CuStringInit>
	CuSuiteRun(suite);
 20029c4:	e13fff17 	ldw	r4,-4(fp)
 20029c8:	20024380 	call	2002438 <CuSuiteRun>
	CuSuiteSummary(suite, output);
 20029cc:	e13fff17 	ldw	r4,-4(fp)
 20029d0:	e17ffe17 	ldw	r5,-8(fp)
 20029d4:	20024d00 	call	20024d0 <CuSuiteSummary>
	CuSuiteDetails(suite, output);
 20029d8:	e13fff17 	ldw	r4,-4(fp)
 20029dc:	e17ffe17 	ldw	r5,-8(fp)
 20029e0:	20025880 	call	2002588 <CuSuiteDetails>
	printf("%s\n", output->buffer);
 20029e4:	e0bffe17 	ldw	r2,-8(fp)
 20029e8:	11000217 	ldw	r4,8(r2)
 20029ec:	20047a40 	call	20047a4 <puts>
	return suite->failCount;
 20029f0:	e0bfff17 	ldw	r2,-4(fp)
 20029f4:	10840117 	ldw	r2,4100(r2)
}
 20029f8:	e037883a 	mov	sp,fp
 20029fc:	dfc00117 	ldw	ra,4(sp)
 2002a00:	df000017 	ldw	fp,0(sp)
 2002a04:	dec00204 	addi	sp,sp,8
 2002a08:	f800283a 	ret

02002a0c <Test_pwm_gen>:

void Test_pwm_gen(INT16U period, INT16U duty){
 2002a0c:	defffa04 	addi	sp,sp,-24
 2002a10:	dfc00515 	stw	ra,20(sp)
 2002a14:	df000415 	stw	fp,16(sp)
 2002a18:	df000404 	addi	fp,sp,16
 2002a1c:	e13ffe0d 	sth	r4,-8(fp)
 2002a20:	e17fff0d 	sth	r5,-4(fp)
	pwm_gen_module* ptr = get_new_pwm_module(PWM_GENERATOR_MOTOR_AVALON_SLAVE_PERIOD_BASE, PWM_GENERATOR_MOTOR_AVALON_SLAVE_DUTY_BASE, PWM_GENERATOR_MOTOR_AVALON_SLAVE_CONTROL_BASE, period, duty);
 2002a24:	e1fffe0b 	ldhu	r7,-8(fp)
 2002a28:	e0bfff0b 	ldhu	r2,-4(fp)
 2002a2c:	10803fcc 	andi	r2,r2,255
 2002a30:	d8800015 	stw	r2,0(sp)
 2002a34:	01010074 	movhi	r4,1025
 2002a38:	21243904 	addi	r4,r4,-28444
 2002a3c:	01410074 	movhi	r5,1025
 2002a40:	29643804 	addi	r5,r5,-28448
 2002a44:	01810074 	movhi	r6,1025
 2002a48:	31a43a44 	addi	r6,r6,-28439
 2002a4c:	20013780 	call	2001378 <get_new_pwm_module>
 2002a50:	e0bffd15 	stw	r2,-12(fp)
	enable_pwm_output(ptr);
 2002a54:	e13ffd17 	ldw	r4,-12(fp)
 2002a58:	20012400 	call	2001240 <enable_pwm_output>
	free(ptr);
 2002a5c:	e13ffd17 	ldw	r4,-12(fp)
 2002a60:	2003d0c0 	call	2003d0c <free>
}
 2002a64:	e037883a 	mov	sp,fp
 2002a68:	dfc00117 	ldw	ra,4(sp)
 2002a6c:	df000017 	ldw	fp,0(sp)
 2002a70:	dec00204 	addi	sp,sp,8
 2002a74:	f800283a 	ret

02002a78 <throttle_data_init>:
//if apps reading value == value at index i, then throttle plate is at i degrees
INT16U throttle_deg_apps_val_map[MAX_THROTTLE_DEG + 1];
//same idea as above
INT16U throttle_deg_tps_val_map[MAX_THROTTLE_DEG + 1];

void throttle_data_init(){
 2002a78:	defffd04 	addi	sp,sp,-12
 2002a7c:	df000215 	stw	fp,8(sp)
 2002a80:	df000204 	addi	fp,sp,8
	INT16U apps_val_inc_by_1_deg = (APPS_VALID_VALUE_MAX - APPS_VALID_VALUE_MIN) / MAX_THROTTLE_DEG; 
 2002a84:	008003c4 	movi	r2,15
 2002a88:	e0bfff0d 	sth	r2,-4(fp)
	INT16U tps_val_inc_by_1_deg = (TPS_VALID_VALUE_MAX - TPS_VALID_VALUE_MIN) / MAX_THROTTLE_DEG; 
 2002a8c:	00800544 	movi	r2,21
 2002a90:	e0bffe8d 	sth	r2,-6(fp)
	INT8U i;
	throttle_deg_apps_val_map[0] = APPS_VALID_VALUE_MIN;
 2002a94:	00c080b4 	movhi	r3,514
 2002a98:	18d9d684 	addi	r3,r3,26458
 2002a9c:	00807084 	movi	r2,450
 2002aa0:	1880000d 	sth	r2,0(r3)
	throttle_deg_tps_val_map[0] = TPS_VALID_VALUE_MIN;
 2002aa4:	00c080b4 	movhi	r3,514
 2002aa8:	18d9a904 	addi	r3,r3,26276
 2002aac:	00807084 	movi	r2,450
 2002ab0:	1880000d 	sth	r2,0(r3)
	for(i=1; i<MAX_THROTTLE_DEG; i++){
 2002ab4:	00800044 	movi	r2,1
 2002ab8:	e0bffe05 	stb	r2,-8(fp)
 2002abc:	00002306 	br	2002b4c <throttle_data_init+0xd4>
		throttle_deg_apps_val_map[i] = throttle_deg_apps_val_map[i - 1] + apps_val_inc_by_1_deg;
 2002ac0:	e17ffe03 	ldbu	r5,-8(fp)
 2002ac4:	e0bffe03 	ldbu	r2,-8(fp)
 2002ac8:	10bfffc4 	addi	r2,r2,-1
 2002acc:	00c080b4 	movhi	r3,514
 2002ad0:	18d9d684 	addi	r3,r3,26458
 2002ad4:	1085883a 	add	r2,r2,r2
 2002ad8:	10c5883a 	add	r2,r2,r3
 2002adc:	10c0000b 	ldhu	r3,0(r2)
 2002ae0:	e0bfff0b 	ldhu	r2,-4(fp)
 2002ae4:	1885883a 	add	r2,r3,r2
 2002ae8:	1009883a 	mov	r4,r2
 2002aec:	00c080b4 	movhi	r3,514
 2002af0:	18d9d684 	addi	r3,r3,26458
 2002af4:	2945883a 	add	r2,r5,r5
 2002af8:	10c5883a 	add	r2,r2,r3
 2002afc:	1100000d 	sth	r4,0(r2)
		throttle_deg_tps_val_map[i] = throttle_deg_tps_val_map[i - 1] + tps_val_inc_by_1_deg;
 2002b00:	e17ffe03 	ldbu	r5,-8(fp)
 2002b04:	e0bffe03 	ldbu	r2,-8(fp)
 2002b08:	10bfffc4 	addi	r2,r2,-1
 2002b0c:	00c080b4 	movhi	r3,514
 2002b10:	18d9a904 	addi	r3,r3,26276
 2002b14:	1085883a 	add	r2,r2,r2
 2002b18:	10c5883a 	add	r2,r2,r3
 2002b1c:	10c0000b 	ldhu	r3,0(r2)
 2002b20:	e0bffe8b 	ldhu	r2,-6(fp)
 2002b24:	1885883a 	add	r2,r3,r2
 2002b28:	1009883a 	mov	r4,r2
 2002b2c:	00c080b4 	movhi	r3,514
 2002b30:	18d9a904 	addi	r3,r3,26276
 2002b34:	2945883a 	add	r2,r5,r5
 2002b38:	10c5883a 	add	r2,r2,r3
 2002b3c:	1100000d 	sth	r4,0(r2)
	INT16U apps_val_inc_by_1_deg = (APPS_VALID_VALUE_MAX - APPS_VALID_VALUE_MIN) / MAX_THROTTLE_DEG; 
	INT16U tps_val_inc_by_1_deg = (TPS_VALID_VALUE_MAX - TPS_VALID_VALUE_MIN) / MAX_THROTTLE_DEG; 
	INT8U i;
	throttle_deg_apps_val_map[0] = APPS_VALID_VALUE_MIN;
	throttle_deg_tps_val_map[0] = TPS_VALID_VALUE_MIN;
	for(i=1; i<MAX_THROTTLE_DEG; i++){
 2002b40:	e0bffe03 	ldbu	r2,-8(fp)
 2002b44:	10800044 	addi	r2,r2,1
 2002b48:	e0bffe05 	stb	r2,-8(fp)
 2002b4c:	e0bffe03 	ldbu	r2,-8(fp)
 2002b50:	108016b0 	cmpltui	r2,r2,90
 2002b54:	103fda1e 	bne	r2,zero,2002ac0 <throttle_data_init+0x48>
		throttle_deg_apps_val_map[i] = throttle_deg_apps_val_map[i - 1] + apps_val_inc_by_1_deg;
		throttle_deg_tps_val_map[i] = throttle_deg_tps_val_map[i - 1] + tps_val_inc_by_1_deg;
	}
	throttle_deg_apps_val_map[MAX_THROTTLE_DEG] = APPS_VALID_VALUE_MAX;
 2002b58:	00c080b4 	movhi	r3,514
 2002b5c:	18d9d684 	addi	r3,r3,26458
 2002b60:	0081c484 	movi	r2,1810
 2002b64:	18802d0d 	sth	r2,180(r3)
	throttle_deg_tps_val_map[MAX_THROTTLE_DEG] = TPS_VALID_VALUE_MAX;
 2002b68:	00c080b4 	movhi	r3,514
 2002b6c:	18d9a904 	addi	r3,r3,26276
 2002b70:	00825804 	movi	r2,2400
 2002b74:	18802d0d 	sth	r2,180(r3)
}
 2002b78:	e037883a 	mov	sp,fp
 2002b7c:	df000017 	ldw	fp,0(sp)
 2002b80:	dec00104 	addi	sp,sp,4
 2002b84:	f800283a 	ret

02002b88 <get_tps_from_apps>:

INT16U get_tps_from_apps(INT16U apps_reading){
 2002b88:	defffc04 	addi	sp,sp,-16
 2002b8c:	df000315 	stw	fp,12(sp)
 2002b90:	df000304 	addi	fp,sp,12
 2002b94:	e13ffe0d 	sth	r4,-8(fp)
	if(apps_reading >= APPS_VALID_VALUE_MAX){
 2002b98:	e0bffe0b 	ldhu	r2,-8(fp)
 2002b9c:	1081c4b0 	cmpltui	r2,r2,1810
 2002ba0:	10000f1e 	bne	r2,zero,2002be0 <get_tps_from_apps+0x58>
		return (throttle_deg_tps_val_map[MAX_THROTTLE_DEG] + throttle_deg_tps_val_map[MAX_THROTTLE_DEG - 1]) / 2;
 2002ba4:	008080b4 	movhi	r2,514
 2002ba8:	1099a904 	addi	r2,r2,26276
 2002bac:	10802d0b 	ldhu	r2,180(r2)
 2002bb0:	10ffffcc 	andi	r3,r2,65535
 2002bb4:	008080b4 	movhi	r2,514
 2002bb8:	1099a904 	addi	r2,r2,26276
 2002bbc:	10802c8b 	ldhu	r2,178(r2)
 2002bc0:	10bfffcc 	andi	r2,r2,65535
 2002bc4:	1887883a 	add	r3,r3,r2
 2002bc8:	1804d7fa 	srli	r2,r3,31
 2002bcc:	10c5883a 	add	r2,r2,r3
 2002bd0:	1005d07a 	srai	r2,r2,1
 2002bd4:	10bfffcc 	andi	r2,r2,65535
 2002bd8:	e0bfff15 	stw	r2,-4(fp)
 2002bdc:	00003c06 	br	2002cd0 <get_tps_from_apps+0x148>
	}
	if(apps_reading <= APPS_VALID_VALUE_MIN){
 2002be0:	e0bffe0b 	ldhu	r2,-8(fp)
 2002be4:	108070e8 	cmpgeui	r2,r2,451
 2002be8:	1000061e 	bne	r2,zero,2002c04 <get_tps_from_apps+0x7c>
		return throttle_deg_tps_val_map[0];
 2002bec:	008080b4 	movhi	r2,514
 2002bf0:	1099a904 	addi	r2,r2,26276
 2002bf4:	1080000b 	ldhu	r2,0(r2)
 2002bf8:	10bfffcc 	andi	r2,r2,65535
 2002bfc:	e0bfff15 	stw	r2,-4(fp)
 2002c00:	00003306 	br	2002cd0 <get_tps_from_apps+0x148>
	}
	INT8U upper;
	for(upper = 1; upper < MAX_THROTTLE_DEG; upper++){
 2002c04:	00800044 	movi	r2,1
 2002c08:	e0bffd05 	stb	r2,-12(fp)
 2002c0c:	00001f06 	br	2002c8c <get_tps_from_apps+0x104>
		if(apps_reading <= throttle_deg_apps_val_map[upper] && apps_reading > throttle_deg_apps_val_map[upper - 1]){
 2002c10:	e0bffd03 	ldbu	r2,-12(fp)
 2002c14:	00c080b4 	movhi	r3,514
 2002c18:	18d9d684 	addi	r3,r3,26458
 2002c1c:	1085883a 	add	r2,r2,r2
 2002c20:	10c5883a 	add	r2,r2,r3
 2002c24:	1080000b 	ldhu	r2,0(r2)
 2002c28:	10ffffcc 	andi	r3,r2,65535
 2002c2c:	e0bffe0b 	ldhu	r2,-8(fp)
 2002c30:	18801336 	bltu	r3,r2,2002c80 <get_tps_from_apps+0xf8>
 2002c34:	e0bffd03 	ldbu	r2,-12(fp)
 2002c38:	10bfffc4 	addi	r2,r2,-1
 2002c3c:	00c080b4 	movhi	r3,514
 2002c40:	18d9d684 	addi	r3,r3,26458
 2002c44:	1085883a 	add	r2,r2,r2
 2002c48:	10c5883a 	add	r2,r2,r3
 2002c4c:	1080000b 	ldhu	r2,0(r2)
 2002c50:	10ffffcc 	andi	r3,r2,65535
 2002c54:	e0bffe0b 	ldhu	r2,-8(fp)
 2002c58:	1880092e 	bgeu	r3,r2,2002c80 <get_tps_from_apps+0xf8>
			return throttle_deg_tps_val_map[upper];
 2002c5c:	e0bffd03 	ldbu	r2,-12(fp)
 2002c60:	00c080b4 	movhi	r3,514
 2002c64:	18d9a904 	addi	r3,r3,26276
 2002c68:	1085883a 	add	r2,r2,r2
 2002c6c:	10c5883a 	add	r2,r2,r3
 2002c70:	1080000b 	ldhu	r2,0(r2)
 2002c74:	10bfffcc 	andi	r2,r2,65535
 2002c78:	e0bfff15 	stw	r2,-4(fp)
 2002c7c:	00001406 	br	2002cd0 <get_tps_from_apps+0x148>
	}
	if(apps_reading <= APPS_VALID_VALUE_MIN){
		return throttle_deg_tps_val_map[0];
	}
	INT8U upper;
	for(upper = 1; upper < MAX_THROTTLE_DEG; upper++){
 2002c80:	e0bffd03 	ldbu	r2,-12(fp)
 2002c84:	10800044 	addi	r2,r2,1
 2002c88:	e0bffd05 	stb	r2,-12(fp)
 2002c8c:	e0bffd03 	ldbu	r2,-12(fp)
 2002c90:	108016b0 	cmpltui	r2,r2,90
 2002c94:	103fde1e 	bne	r2,zero,2002c10 <get_tps_from_apps+0x88>
		if(apps_reading <= throttle_deg_apps_val_map[upper] && apps_reading > throttle_deg_apps_val_map[upper - 1]){
			return throttle_deg_tps_val_map[upper];
		}
	}
	return (throttle_deg_tps_val_map[MAX_THROTTLE_DEG] + throttle_deg_tps_val_map[MAX_THROTTLE_DEG - 1]) / 2;
 2002c98:	008080b4 	movhi	r2,514
 2002c9c:	1099a904 	addi	r2,r2,26276
 2002ca0:	10802d0b 	ldhu	r2,180(r2)
 2002ca4:	10ffffcc 	andi	r3,r2,65535
 2002ca8:	008080b4 	movhi	r2,514
 2002cac:	1099a904 	addi	r2,r2,26276
 2002cb0:	10802c8b 	ldhu	r2,178(r2)
 2002cb4:	10bfffcc 	andi	r2,r2,65535
 2002cb8:	1887883a 	add	r3,r3,r2
 2002cbc:	1804d7fa 	srli	r2,r3,31
 2002cc0:	10c5883a 	add	r2,r2,r3
 2002cc4:	1005d07a 	srai	r2,r2,1
 2002cc8:	10bfffcc 	andi	r2,r2,65535
 2002ccc:	e0bfff15 	stw	r2,-4(fp)
 2002cd0:	e0bfff17 	ldw	r2,-4(fp)
}
 2002cd4:	e037883a 	mov	sp,fp
 2002cd8:	df000017 	ldw	fp,0(sp)
 2002cdc:	dec00104 	addi	sp,sp,4
 2002ce0:	f800283a 	ret

02002ce4 <get_new_rpm_needed>:

INT16U get_new_rpm_needed(INT16U curr_rpm, INT8U curr_gear, INT8U new_gear){
 2002ce4:	defffa04 	addi	sp,sp,-24
 2002ce8:	dfc00515 	stw	ra,20(sp)
 2002cec:	df000415 	stw	fp,16(sp)
 2002cf0:	df000404 	addi	fp,sp,16
 2002cf4:	e13ffd0d 	sth	r4,-12(fp)
 2002cf8:	e17ffe05 	stb	r5,-8(fp)
 2002cfc:	e1bfff05 	stb	r6,-4(fp)
	INT8U curr_gear_ratio = get_gear_ratio(curr_gear);
 2002d00:	e13ffe03 	ldbu	r4,-8(fp)
 2002d04:	2002ee40 	call	2002ee4 <get_gear_ratio>
 2002d08:	e0bffc45 	stb	r2,-15(fp)
	INT8U new_gear_ratio = get_gear_ratio(new_gear);
 2002d0c:	e13fff03 	ldbu	r4,-4(fp)
 2002d10:	2002ee40 	call	2002ee4 <get_gear_ratio>
 2002d14:	e0bffc05 	stb	r2,-16(fp)
	return ((INT16U)curr_rpm * new_gear_ratio / curr_gear_ratio)/FLOAT_SCALE_FACTOR_10;
 2002d18:	e13ffd0b 	ldhu	r4,-12(fp)
 2002d1c:	e17ffc03 	ldbu	r5,-16(fp)
 2002d20:	20036dc0 	call	20036dc <__mulsi3>
 2002d24:	1009883a 	mov	r4,r2
 2002d28:	e17ffc43 	ldbu	r5,-15(fp)
 2002d2c:	200360c0 	call	200360c <__divsi3>
 2002d30:	1009883a 	mov	r4,r2
 2002d34:	01400284 	movi	r5,10
 2002d38:	200360c0 	call	200360c <__divsi3>
 2002d3c:	10bfffcc 	andi	r2,r2,65535
}
 2002d40:	e037883a 	mov	sp,fp
 2002d44:	dfc00117 	ldw	ra,4(sp)
 2002d48:	df000017 	ldw	fp,0(sp)
 2002d4c:	dec00204 	addi	sp,sp,8
 2002d50:	f800283a 	ret

02002d54 <int32U_changed_by_threshold>:

#include "util.h"

/* Simple function to check if input is changed from last_value by at least threshold amount*/
BOOL int32U_changed_by_threshold(INT32U input, INT32U last_value,
		INT32U threshold) {
 2002d54:	defffb04 	addi	sp,sp,-20
 2002d58:	df000415 	stw	fp,16(sp)
 2002d5c:	df000404 	addi	fp,sp,16
 2002d60:	e13ffc15 	stw	r4,-16(fp)
 2002d64:	e17ffd15 	stw	r5,-12(fp)
 2002d68:	e1bffe15 	stw	r6,-8(fp)

	if (input > last_value && input - last_value > threshold)
 2002d6c:	e0fffc17 	ldw	r3,-16(fp)
 2002d70:	e0bffd17 	ldw	r2,-12(fp)
 2002d74:	10c0082e 	bgeu	r2,r3,2002d98 <int32U_changed_by_threshold+0x44>
 2002d78:	e0fffc17 	ldw	r3,-16(fp)
 2002d7c:	e0bffd17 	ldw	r2,-12(fp)
 2002d80:	1887c83a 	sub	r3,r3,r2
 2002d84:	e0bffe17 	ldw	r2,-8(fp)
 2002d88:	10c0032e 	bgeu	r2,r3,2002d98 <int32U_changed_by_threshold+0x44>
		return TRUE;
 2002d8c:	00803fc4 	movi	r2,255
 2002d90:	e0bfff15 	stw	r2,-4(fp)
 2002d94:	00000c06 	br	2002dc8 <int32U_changed_by_threshold+0x74>

	if (last_value > input && last_value - input > threshold)
 2002d98:	e0fffd17 	ldw	r3,-12(fp)
 2002d9c:	e0bffc17 	ldw	r2,-16(fp)
 2002da0:	10c0082e 	bgeu	r2,r3,2002dc4 <int32U_changed_by_threshold+0x70>
 2002da4:	e0fffd17 	ldw	r3,-12(fp)
 2002da8:	e0bffc17 	ldw	r2,-16(fp)
 2002dac:	1887c83a 	sub	r3,r3,r2
 2002db0:	e0bffe17 	ldw	r2,-8(fp)
 2002db4:	10c0032e 	bgeu	r2,r3,2002dc4 <int32U_changed_by_threshold+0x70>
		return TRUE;
 2002db8:	00803fc4 	movi	r2,255
 2002dbc:	e0bfff15 	stw	r2,-4(fp)
 2002dc0:	00000106 	br	2002dc8 <int32U_changed_by_threshold+0x74>

	return FALSE;
 2002dc4:	e03fff15 	stw	zero,-4(fp)
 2002dc8:	e0bfff17 	ldw	r2,-4(fp)
}
 2002dcc:	e037883a 	mov	sp,fp
 2002dd0:	df000017 	ldw	fp,0(sp)
 2002dd4:	dec00104 	addi	sp,sp,4
 2002dd8:	f800283a 	ret

02002ddc <int32U_differ_by_percent>:
 * percent is input as an integer and it's accurate to
 * for example, to check 10 percent, input number 10
 * the actual accuracy is defined by PERCENT_DIFF_ACCURACY
 */
BOOL int32U_differ_by_percent(INT32U src1, INT32U src2, INT32U percent,
		INT32U accuracy) {
 2002ddc:	defff304 	addi	sp,sp,-52
 2002de0:	dfc00c15 	stw	ra,48(sp)
 2002de4:	df000b15 	stw	fp,44(sp)
 2002de8:	df000b04 	addi	fp,sp,44
 2002dec:	e13ffb15 	stw	r4,-20(fp)
 2002df0:	e17ffc15 	stw	r5,-16(fp)
 2002df4:	e1bffd15 	stw	r6,-12(fp)
 2002df8:	e1fffe15 	stw	r7,-8(fp)

	INT32U larger;
	INT32U smaller;

	if (src1 > src2) {
 2002dfc:	e0fffb17 	ldw	r3,-20(fp)
 2002e00:	e0bffc17 	ldw	r2,-16(fp)
 2002e04:	10c0052e 	bgeu	r2,r3,2002e1c <int32U_differ_by_percent+0x40>
		larger = src1;
 2002e08:	e0bffb17 	ldw	r2,-20(fp)
 2002e0c:	e0bffa15 	stw	r2,-24(fp)
		smaller = src2;
 2002e10:	e0bffc17 	ldw	r2,-16(fp)
 2002e14:	e0bff915 	stw	r2,-28(fp)
 2002e18:	00000406 	br	2002e2c <int32U_differ_by_percent+0x50>
	} else {
		larger = src2;
 2002e1c:	e0bffc17 	ldw	r2,-16(fp)
 2002e20:	e0bffa15 	stw	r2,-24(fp)
		smaller = src1;
 2002e24:	e0bffb17 	ldw	r2,-20(fp)
 2002e28:	e0bff915 	stw	r2,-28(fp)
	}
	if (larger == 0)
 2002e2c:	e0bffa17 	ldw	r2,-24(fp)
 2002e30:	1004c03a 	cmpne	r2,r2,zero
 2002e34:	1000021e 	bne	r2,zero,2002e40 <int32U_differ_by_percent+0x64>
		return FALSE;
 2002e38:	e03fff15 	stw	zero,-4(fp)
 2002e3c:	00002306 	br	2002ecc <int32U_differ_by_percent+0xf0>
	INT32U diff = larger - smaller;
 2002e40:	e0fffa17 	ldw	r3,-24(fp)
 2002e44:	e0bff917 	ldw	r2,-28(fp)
 2002e48:	1885c83a 	sub	r2,r3,r2
 2002e4c:	e0bff815 	stw	r2,-32(fp)
	INT32U avg = (larger + smaller) >> 1;
 2002e50:	e0fffa17 	ldw	r3,-24(fp)
 2002e54:	e0bff917 	ldw	r2,-28(fp)
 2002e58:	1885883a 	add	r2,r3,r2
 2002e5c:	1004d07a 	srli	r2,r2,1
 2002e60:	e0bff715 	stw	r2,-36(fp)
	if(avg == 0)
 2002e64:	e0bff717 	ldw	r2,-36(fp)
 2002e68:	1004c03a 	cmpne	r2,r2,zero
 2002e6c:	1000021e 	bne	r2,zero,2002e78 <int32U_differ_by_percent+0x9c>
		return FALSE;
 2002e70:	e03fff15 	stw	zero,-4(fp)
 2002e74:	00001506 	br	2002ecc <int32U_differ_by_percent+0xf0>
	INT32U result = (diff * accuracy) / avg;
 2002e78:	e13ff817 	ldw	r4,-32(fp)
 2002e7c:	e17ffe17 	ldw	r5,-8(fp)
 2002e80:	20036dc0 	call	20036dc <__mulsi3>
 2002e84:	1009883a 	mov	r4,r2
 2002e88:	e17ff717 	ldw	r5,-36(fp)
 2002e8c:	20036cc0 	call	20036cc <__udivsi3>
 2002e90:	e0bff615 	stw	r2,-40(fp)
	INT32U threshold = percent * accuracy / 100;
 2002e94:	e13ffd17 	ldw	r4,-12(fp)
 2002e98:	e17ffe17 	ldw	r5,-8(fp)
 2002e9c:	20036dc0 	call	20036dc <__mulsi3>
 2002ea0:	1009883a 	mov	r4,r2
 2002ea4:	01401904 	movi	r5,100
 2002ea8:	20036cc0 	call	20036cc <__udivsi3>
 2002eac:	e0bff515 	stw	r2,-44(fp)
	if (result <= threshold)
 2002eb0:	e0fff617 	ldw	r3,-40(fp)
 2002eb4:	e0bff517 	ldw	r2,-44(fp)
 2002eb8:	10c00236 	bltu	r2,r3,2002ec4 <int32U_differ_by_percent+0xe8>
		return FALSE;
 2002ebc:	e03fff15 	stw	zero,-4(fp)
 2002ec0:	00000206 	br	2002ecc <int32U_differ_by_percent+0xf0>
	else
		return TRUE;
 2002ec4:	00803fc4 	movi	r2,255
 2002ec8:	e0bfff15 	stw	r2,-4(fp)
 2002ecc:	e0bfff17 	ldw	r2,-4(fp)
}
 2002ed0:	e037883a 	mov	sp,fp
 2002ed4:	dfc00117 	ldw	ra,4(sp)
 2002ed8:	df000017 	ldw	fp,0(sp)
 2002edc:	dec00204 	addi	sp,sp,8
 2002ee0:	f800283a 	ret

02002ee4 <get_gear_ratio>:

INT8U get_gear_ratio(INT8U gear){
 2002ee4:	defffd04 	addi	sp,sp,-12
 2002ee8:	df000215 	stw	fp,8(sp)
 2002eec:	df000204 	addi	fp,sp,8
 2002ef0:	e13ffe05 	stb	r4,-8(fp)
	if(gear == 1){
 2002ef4:	e0bffe03 	ldbu	r2,-8(fp)
 2002ef8:	10800058 	cmpnei	r2,r2,1
 2002efc:	1000031e 	bne	r2,zero,2002f0c <get_gear_ratio+0x28>
		return GEAR_RATIO_1ST;
 2002f00:	00800484 	movi	r2,18
 2002f04:	e0bfff15 	stw	r2,-4(fp)
 2002f08:	00000e06 	br	2002f44 <get_gear_ratio+0x60>
	}else if(gear == 2){
 2002f0c:	e0bffe03 	ldbu	r2,-8(fp)
 2002f10:	10800098 	cmpnei	r2,r2,2
 2002f14:	1000031e 	bne	r2,zero,2002f24 <get_gear_ratio+0x40>
		return GEAR_RATIO_2ND;
 2002f18:	00800304 	movi	r2,12
 2002f1c:	e0bfff15 	stw	r2,-4(fp)
 2002f20:	00000806 	br	2002f44 <get_gear_ratio+0x60>
	}else if(gear == 4){
 2002f24:	e0bffe03 	ldbu	r2,-8(fp)
 2002f28:	10800118 	cmpnei	r2,r2,4
 2002f2c:	1000031e 	bne	r2,zero,2002f3c <get_gear_ratio+0x58>
		return GEAR_RATIO_4TH;
 2002f30:	00800204 	movi	r2,8
 2002f34:	e0bfff15 	stw	r2,-4(fp)
 2002f38:	00000206 	br	2002f44 <get_gear_ratio+0x60>
	}else{
		return GEAR_RATIO_3RD;
 2002f3c:	00800284 	movi	r2,10
 2002f40:	e0bfff15 	stw	r2,-4(fp)
 2002f44:	e0bfff17 	ldw	r2,-4(fp)
	}
}
 2002f48:	e037883a 	mov	sp,fp
 2002f4c:	df000017 	ldw	fp,0(sp)
 2002f50:	dec00104 	addi	sp,sp,4
 2002f54:	f800283a 	ret

02002f58 <get_tps_sensor_output_pwm>:

pwm_gen_module* get_tps_sensor_output_pwm(){
 2002f58:	defffd04 	addi	sp,sp,-12
 2002f5c:	dfc00215 	stw	ra,8(sp)
 2002f60:	df000115 	stw	fp,4(sp)
 2002f64:	df000104 	addi	fp,sp,4
	return get_new_pwm_module(PWM_GENERATOR_TPS_OUT_AVALON_SLAVE_PERIOD_BASE, PWM_GENERATOR_TPS_OUT_AVALON_SLAVE_DUTY_BASE, PWM_GENERATOR_TPS_OUT_AVALON_SLAVE_CONTROL_BASE, TPS_OUT_PWM_PERIOD_TICKS, 0);
 2002f68:	d8000015 	stw	zero,0(sp)
 2002f6c:	01010074 	movhi	r4,1025
 2002f70:	21243704 	addi	r4,r4,-28452
 2002f74:	01410074 	movhi	r5,1025
 2002f78:	29643604 	addi	r5,r5,-28456
 2002f7c:	01810074 	movhi	r6,1025
 2002f80:	31a43a04 	addi	r6,r6,-28440
 2002f84:	01c30d44 	movi	r7,3125
 2002f88:	20013780 	call	2001378 <get_new_pwm_module>
}
 2002f8c:	e037883a 	mov	sp,fp
 2002f90:	dfc00117 	ldw	ra,4(sp)
 2002f94:	df000017 	ldw	fp,0(sp)
 2002f98:	dec00204 	addi	sp,sp,8
 2002f9c:	f800283a 	ret

02002fa0 <set_tps_sensor_output>:

void set_tps_sensor_output(pwm_gen_module* pwm, INT32U tps_val){
 2002fa0:	defffb04 	addi	sp,sp,-20
 2002fa4:	dfc00415 	stw	ra,16(sp)
 2002fa8:	df000315 	stw	fp,12(sp)
 2002fac:	df000304 	addi	fp,sp,12
 2002fb0:	e13ffe15 	stw	r4,-8(fp)
 2002fb4:	e17fff15 	stw	r5,-4(fp)
	INT8U duty_cycle = tps_val * FLOAT_SCALE_FACTOR_100 / TPS_VALID_VALUE_MAX;
 2002fb8:	e13fff17 	ldw	r4,-4(fp)
 2002fbc:	01401904 	movi	r5,100
 2002fc0:	20036dc0 	call	20036dc <__mulsi3>
 2002fc4:	1009883a 	mov	r4,r2
 2002fc8:	01425804 	movi	r5,2400
 2002fcc:	20036cc0 	call	20036cc <__udivsi3>
 2002fd0:	e0bffd05 	stb	r2,-12(fp)
	disable_pwm_output(pwm);
 2002fd4:	e13ffe17 	ldw	r4,-8(fp)
 2002fd8:	20012840 	call	2001284 <disable_pwm_output>
	set_duty_cycle(pwm, duty_cycle);
 2002fdc:	e17ffd03 	ldbu	r5,-12(fp)
 2002fe0:	e13ffe17 	ldw	r4,-8(fp)
 2002fe4:	200130c0 	call	200130c <set_duty_cycle>
	enable_pwm_output(pwm);
 2002fe8:	e13ffe17 	ldw	r4,-8(fp)
 2002fec:	20012400 	call	2001240 <enable_pwm_output>
}
 2002ff0:	e037883a 	mov	sp,fp
 2002ff4:	dfc00117 	ldw	ra,4(sp)
 2002ff8:	df000017 	ldw	fp,0(sp)
 2002ffc:	dec00204 	addi	sp,sp,8
 2003000:	f800283a 	ret

02003004 <_fpadd_parts>:
 2003004:	defff804 	addi	sp,sp,-32
 2003008:	dcc00315 	stw	r19,12(sp)
 200300c:	2027883a 	mov	r19,r4
 2003010:	21000017 	ldw	r4,0(r4)
 2003014:	00c00044 	movi	r3,1
 2003018:	dd400515 	stw	r21,20(sp)
 200301c:	dd000415 	stw	r20,16(sp)
 2003020:	ddc00715 	stw	r23,28(sp)
 2003024:	dd800615 	stw	r22,24(sp)
 2003028:	dc800215 	stw	r18,8(sp)
 200302c:	dc400115 	stw	r17,4(sp)
 2003030:	dc000015 	stw	r16,0(sp)
 2003034:	282b883a 	mov	r21,r5
 2003038:	3029883a 	mov	r20,r6
 200303c:	1900632e 	bgeu	r3,r4,20031cc <_fpadd_parts+0x1c8>
 2003040:	28800017 	ldw	r2,0(r5)
 2003044:	1880812e 	bgeu	r3,r2,200324c <_fpadd_parts+0x248>
 2003048:	00c00104 	movi	r3,4
 200304c:	20c0dc26 	beq	r4,r3,20033c0 <_fpadd_parts+0x3bc>
 2003050:	10c07e26 	beq	r2,r3,200324c <_fpadd_parts+0x248>
 2003054:	00c00084 	movi	r3,2
 2003058:	10c06726 	beq	r2,r3,20031f8 <_fpadd_parts+0x1f4>
 200305c:	20c07b26 	beq	r4,r3,200324c <_fpadd_parts+0x248>
 2003060:	9dc00217 	ldw	r23,8(r19)
 2003064:	28c00217 	ldw	r3,8(r5)
 2003068:	9c400317 	ldw	r17,12(r19)
 200306c:	2bc00317 	ldw	r15,12(r5)
 2003070:	b8cdc83a 	sub	r6,r23,r3
 2003074:	9c800417 	ldw	r18,16(r19)
 2003078:	2c000417 	ldw	r16,16(r5)
 200307c:	3009883a 	mov	r4,r6
 2003080:	30009716 	blt	r6,zero,20032e0 <_fpadd_parts+0x2dc>
 2003084:	00800fc4 	movi	r2,63
 2003088:	11806b16 	blt	r2,r6,2003238 <_fpadd_parts+0x234>
 200308c:	0100a40e 	bge	zero,r4,2003320 <_fpadd_parts+0x31c>
 2003090:	35bff804 	addi	r22,r6,-32
 2003094:	b000bc16 	blt	r22,zero,2003388 <_fpadd_parts+0x384>
 2003098:	8596d83a 	srl	r11,r16,r22
 200309c:	0019883a 	mov	r12,zero
 20030a0:	0013883a 	mov	r9,zero
 20030a4:	01000044 	movi	r4,1
 20030a8:	0015883a 	mov	r10,zero
 20030ac:	b000be16 	blt	r22,zero,20033a8 <_fpadd_parts+0x3a4>
 20030b0:	2590983a 	sll	r8,r4,r22
 20030b4:	000f883a 	mov	r7,zero
 20030b8:	00bfffc4 	movi	r2,-1
 20030bc:	3889883a 	add	r4,r7,r2
 20030c0:	408b883a 	add	r5,r8,r2
 20030c4:	21cd803a 	cmpltu	r6,r4,r7
 20030c8:	314b883a 	add	r5,r6,r5
 20030cc:	7904703a 	and	r2,r15,r4
 20030d0:	8146703a 	and	r3,r16,r5
 20030d4:	10c4b03a 	or	r2,r2,r3
 20030d8:	10000226 	beq	r2,zero,20030e4 <_fpadd_parts+0xe0>
 20030dc:	02400044 	movi	r9,1
 20030e0:	0015883a 	mov	r10,zero
 20030e4:	5a5eb03a 	or	r15,r11,r9
 20030e8:	62a0b03a 	or	r16,r12,r10
 20030ec:	99400117 	ldw	r5,4(r19)
 20030f0:	a8800117 	ldw	r2,4(r21)
 20030f4:	28806e26 	beq	r5,r2,20032b0 <_fpadd_parts+0x2ac>
 20030f8:	28006626 	beq	r5,zero,2003294 <_fpadd_parts+0x290>
 20030fc:	7c45c83a 	sub	r2,r15,r17
 2003100:	7889803a 	cmpltu	r4,r15,r2
 2003104:	8487c83a 	sub	r3,r16,r18
 2003108:	1909c83a 	sub	r4,r3,r4
 200310c:	100d883a 	mov	r6,r2
 2003110:	200f883a 	mov	r7,r4
 2003114:	38007716 	blt	r7,zero,20032f4 <_fpadd_parts+0x2f0>
 2003118:	a5c00215 	stw	r23,8(r20)
 200311c:	a1c00415 	stw	r7,16(r20)
 2003120:	a0000115 	stw	zero,4(r20)
 2003124:	a1800315 	stw	r6,12(r20)
 2003128:	a2000317 	ldw	r8,12(r20)
 200312c:	a2400417 	ldw	r9,16(r20)
 2003130:	00bfffc4 	movi	r2,-1
 2003134:	408b883a 	add	r5,r8,r2
 2003138:	2a09803a 	cmpltu	r4,r5,r8
 200313c:	488d883a 	add	r6,r9,r2
 2003140:	01c40034 	movhi	r7,4096
 2003144:	39ffffc4 	addi	r7,r7,-1
 2003148:	218d883a 	add	r6,r4,r6
 200314c:	39801736 	bltu	r7,r6,20031ac <_fpadd_parts+0x1a8>
 2003150:	31c06526 	beq	r6,r7,20032e8 <_fpadd_parts+0x2e4>
 2003154:	a3000217 	ldw	r12,8(r20)
 2003158:	4209883a 	add	r4,r8,r8
 200315c:	00bfffc4 	movi	r2,-1
 2003160:	220f803a 	cmpltu	r7,r4,r8
 2003164:	4a4b883a 	add	r5,r9,r9
 2003168:	394f883a 	add	r7,r7,r5
 200316c:	2095883a 	add	r10,r4,r2
 2003170:	3897883a 	add	r11,r7,r2
 2003174:	510d803a 	cmpltu	r6,r10,r4
 2003178:	6099883a 	add	r12,r12,r2
 200317c:	32d7883a 	add	r11,r6,r11
 2003180:	00840034 	movhi	r2,4096
 2003184:	10bfffc4 	addi	r2,r2,-1
 2003188:	2011883a 	mov	r8,r4
 200318c:	3813883a 	mov	r9,r7
 2003190:	a1000315 	stw	r4,12(r20)
 2003194:	a1c00415 	stw	r7,16(r20)
 2003198:	a3000215 	stw	r12,8(r20)
 200319c:	12c00336 	bltu	r2,r11,20031ac <_fpadd_parts+0x1a8>
 20031a0:	58bfed1e 	bne	r11,r2,2003158 <_fpadd_parts+0x154>
 20031a4:	00bfff84 	movi	r2,-2
 20031a8:	12bfeb2e 	bgeu	r2,r10,2003158 <_fpadd_parts+0x154>
 20031ac:	a2800417 	ldw	r10,16(r20)
 20031b0:	008000c4 	movi	r2,3
 20031b4:	00c80034 	movhi	r3,8192
 20031b8:	18ffffc4 	addi	r3,r3,-1
 20031bc:	a2400317 	ldw	r9,12(r20)
 20031c0:	a0800015 	stw	r2,0(r20)
 20031c4:	1a802336 	bltu	r3,r10,2003254 <_fpadd_parts+0x250>
 20031c8:	a027883a 	mov	r19,r20
 20031cc:	9805883a 	mov	r2,r19
 20031d0:	ddc00717 	ldw	r23,28(sp)
 20031d4:	dd800617 	ldw	r22,24(sp)
 20031d8:	dd400517 	ldw	r21,20(sp)
 20031dc:	dd000417 	ldw	r20,16(sp)
 20031e0:	dcc00317 	ldw	r19,12(sp)
 20031e4:	dc800217 	ldw	r18,8(sp)
 20031e8:	dc400117 	ldw	r17,4(sp)
 20031ec:	dc000017 	ldw	r16,0(sp)
 20031f0:	dec00804 	addi	sp,sp,32
 20031f4:	f800283a 	ret
 20031f8:	20fff41e 	bne	r4,r3,20031cc <_fpadd_parts+0x1c8>
 20031fc:	31000015 	stw	r4,0(r6)
 2003200:	98800117 	ldw	r2,4(r19)
 2003204:	30800115 	stw	r2,4(r6)
 2003208:	98c00217 	ldw	r3,8(r19)
 200320c:	30c00215 	stw	r3,8(r6)
 2003210:	98800317 	ldw	r2,12(r19)
 2003214:	30800315 	stw	r2,12(r6)
 2003218:	98c00417 	ldw	r3,16(r19)
 200321c:	30c00415 	stw	r3,16(r6)
 2003220:	98800117 	ldw	r2,4(r19)
 2003224:	28c00117 	ldw	r3,4(r5)
 2003228:	3027883a 	mov	r19,r6
 200322c:	10c4703a 	and	r2,r2,r3
 2003230:	30800115 	stw	r2,4(r6)
 2003234:	003fe506 	br	20031cc <_fpadd_parts+0x1c8>
 2003238:	1dc02616 	blt	r3,r23,20032d4 <_fpadd_parts+0x2d0>
 200323c:	0023883a 	mov	r17,zero
 2003240:	182f883a 	mov	r23,r3
 2003244:	0025883a 	mov	r18,zero
 2003248:	003fa806 	br	20030ec <_fpadd_parts+0xe8>
 200324c:	a827883a 	mov	r19,r21
 2003250:	003fde06 	br	20031cc <_fpadd_parts+0x1c8>
 2003254:	01800044 	movi	r6,1
 2003258:	500497fa 	slli	r2,r10,31
 200325c:	4808d07a 	srli	r4,r9,1
 2003260:	518ad83a 	srl	r5,r10,r6
 2003264:	a2000217 	ldw	r8,8(r20)
 2003268:	1108b03a 	or	r4,r2,r4
 200326c:	0007883a 	mov	r3,zero
 2003270:	4984703a 	and	r2,r9,r6
 2003274:	208cb03a 	or	r6,r4,r2
 2003278:	28ceb03a 	or	r7,r5,r3
 200327c:	42000044 	addi	r8,r8,1
 2003280:	a027883a 	mov	r19,r20
 2003284:	a1c00415 	stw	r7,16(r20)
 2003288:	a2000215 	stw	r8,8(r20)
 200328c:	a1800315 	stw	r6,12(r20)
 2003290:	003fce06 	br	20031cc <_fpadd_parts+0x1c8>
 2003294:	8bc5c83a 	sub	r2,r17,r15
 2003298:	8889803a 	cmpltu	r4,r17,r2
 200329c:	9407c83a 	sub	r3,r18,r16
 20032a0:	1909c83a 	sub	r4,r3,r4
 20032a4:	100d883a 	mov	r6,r2
 20032a8:	200f883a 	mov	r7,r4
 20032ac:	003f9906 	br	2003114 <_fpadd_parts+0x110>
 20032b0:	7c45883a 	add	r2,r15,r17
 20032b4:	13c9803a 	cmpltu	r4,r2,r15
 20032b8:	8487883a 	add	r3,r16,r18
 20032bc:	20c9883a 	add	r4,r4,r3
 20032c0:	a1400115 	stw	r5,4(r20)
 20032c4:	a5c00215 	stw	r23,8(r20)
 20032c8:	a0800315 	stw	r2,12(r20)
 20032cc:	a1000415 	stw	r4,16(r20)
 20032d0:	003fb606 	br	20031ac <_fpadd_parts+0x1a8>
 20032d4:	001f883a 	mov	r15,zero
 20032d8:	0021883a 	mov	r16,zero
 20032dc:	003f8306 	br	20030ec <_fpadd_parts+0xe8>
 20032e0:	018dc83a 	sub	r6,zero,r6
 20032e4:	003f6706 	br	2003084 <_fpadd_parts+0x80>
 20032e8:	00bfff84 	movi	r2,-2
 20032ec:	117faf36 	bltu	r2,r5,20031ac <_fpadd_parts+0x1a8>
 20032f0:	003f9806 	br	2003154 <_fpadd_parts+0x150>
 20032f4:	0005883a 	mov	r2,zero
 20032f8:	1189c83a 	sub	r4,r2,r6
 20032fc:	1105803a 	cmpltu	r2,r2,r4
 2003300:	01cbc83a 	sub	r5,zero,r7
 2003304:	2885c83a 	sub	r2,r5,r2
 2003308:	01800044 	movi	r6,1
 200330c:	a1800115 	stw	r6,4(r20)
 2003310:	a5c00215 	stw	r23,8(r20)
 2003314:	a1000315 	stw	r4,12(r20)
 2003318:	a0800415 	stw	r2,16(r20)
 200331c:	003f8206 	br	2003128 <_fpadd_parts+0x124>
 2003320:	203f7226 	beq	r4,zero,20030ec <_fpadd_parts+0xe8>
 2003324:	35bff804 	addi	r22,r6,-32
 2003328:	b9af883a 	add	r23,r23,r6
 200332c:	b0003116 	blt	r22,zero,20033f4 <_fpadd_parts+0x3f0>
 2003330:	959ad83a 	srl	r13,r18,r22
 2003334:	001d883a 	mov	r14,zero
 2003338:	000f883a 	mov	r7,zero
 200333c:	01000044 	movi	r4,1
 2003340:	0011883a 	mov	r8,zero
 2003344:	b0002516 	blt	r22,zero,20033dc <_fpadd_parts+0x3d8>
 2003348:	2594983a 	sll	r10,r4,r22
 200334c:	0013883a 	mov	r9,zero
 2003350:	00bfffc4 	movi	r2,-1
 2003354:	4889883a 	add	r4,r9,r2
 2003358:	508b883a 	add	r5,r10,r2
 200335c:	224d803a 	cmpltu	r6,r4,r9
 2003360:	314b883a 	add	r5,r6,r5
 2003364:	8904703a 	and	r2,r17,r4
 2003368:	9146703a 	and	r3,r18,r5
 200336c:	10c4b03a 	or	r2,r2,r3
 2003370:	10000226 	beq	r2,zero,200337c <_fpadd_parts+0x378>
 2003374:	01c00044 	movi	r7,1
 2003378:	0011883a 	mov	r8,zero
 200337c:	69e2b03a 	or	r17,r13,r7
 2003380:	7224b03a 	or	r18,r14,r8
 2003384:	003f5906 	br	20030ec <_fpadd_parts+0xe8>
 2003388:	8407883a 	add	r3,r16,r16
 200338c:	008007c4 	movi	r2,31
 2003390:	1185c83a 	sub	r2,r2,r6
 2003394:	1886983a 	sll	r3,r3,r2
 2003398:	7996d83a 	srl	r11,r15,r6
 200339c:	8198d83a 	srl	r12,r16,r6
 20033a0:	1ad6b03a 	or	r11,r3,r11
 20033a4:	003f3e06 	br	20030a0 <_fpadd_parts+0x9c>
 20033a8:	2006d07a 	srli	r3,r4,1
 20033ac:	008007c4 	movi	r2,31
 20033b0:	1185c83a 	sub	r2,r2,r6
 20033b4:	1890d83a 	srl	r8,r3,r2
 20033b8:	218e983a 	sll	r7,r4,r6
 20033bc:	003f3e06 	br	20030b8 <_fpadd_parts+0xb4>
 20033c0:	113f821e 	bne	r2,r4,20031cc <_fpadd_parts+0x1c8>
 20033c4:	28c00117 	ldw	r3,4(r5)
 20033c8:	98800117 	ldw	r2,4(r19)
 20033cc:	10ff7f26 	beq	r2,r3,20031cc <_fpadd_parts+0x1c8>
 20033d0:	04c080b4 	movhi	r19,514
 20033d4:	9ce96504 	addi	r19,r19,-23148
 20033d8:	003f7c06 	br	20031cc <_fpadd_parts+0x1c8>
 20033dc:	2006d07a 	srli	r3,r4,1
 20033e0:	008007c4 	movi	r2,31
 20033e4:	1185c83a 	sub	r2,r2,r6
 20033e8:	1894d83a 	srl	r10,r3,r2
 20033ec:	2192983a 	sll	r9,r4,r6
 20033f0:	003fd706 	br	2003350 <_fpadd_parts+0x34c>
 20033f4:	9487883a 	add	r3,r18,r18
 20033f8:	008007c4 	movi	r2,31
 20033fc:	1185c83a 	sub	r2,r2,r6
 2003400:	1886983a 	sll	r3,r3,r2
 2003404:	899ad83a 	srl	r13,r17,r6
 2003408:	919cd83a 	srl	r14,r18,r6
 200340c:	1b5ab03a 	or	r13,r3,r13
 2003410:	003fc906 	br	2003338 <_fpadd_parts+0x334>

02003414 <__subdf3>:
 2003414:	deffea04 	addi	sp,sp,-88
 2003418:	dcc01415 	stw	r19,80(sp)
 200341c:	dcc00404 	addi	r19,sp,16
 2003420:	2011883a 	mov	r8,r4
 2003424:	2813883a 	mov	r9,r5
 2003428:	dc401315 	stw	r17,76(sp)
 200342c:	d809883a 	mov	r4,sp
 2003430:	980b883a 	mov	r5,r19
 2003434:	dc400904 	addi	r17,sp,36
 2003438:	dfc01515 	stw	ra,84(sp)
 200343c:	da400115 	stw	r9,4(sp)
 2003440:	d9c00315 	stw	r7,12(sp)
 2003444:	da000015 	stw	r8,0(sp)
 2003448:	d9800215 	stw	r6,8(sp)
 200344c:	2003a280 	call	2003a28 <__unpack_d>
 2003450:	d9000204 	addi	r4,sp,8
 2003454:	880b883a 	mov	r5,r17
 2003458:	2003a280 	call	2003a28 <__unpack_d>
 200345c:	d8800a17 	ldw	r2,40(sp)
 2003460:	880b883a 	mov	r5,r17
 2003464:	9809883a 	mov	r4,r19
 2003468:	d9800e04 	addi	r6,sp,56
 200346c:	1080005c 	xori	r2,r2,1
 2003470:	d8800a15 	stw	r2,40(sp)
 2003474:	20030040 	call	2003004 <_fpadd_parts>
 2003478:	1009883a 	mov	r4,r2
 200347c:	20037140 	call	2003714 <__pack_d>
 2003480:	dfc01517 	ldw	ra,84(sp)
 2003484:	dcc01417 	ldw	r19,80(sp)
 2003488:	dc401317 	ldw	r17,76(sp)
 200348c:	dec01604 	addi	sp,sp,88
 2003490:	f800283a 	ret

02003494 <__adddf3>:
 2003494:	deffea04 	addi	sp,sp,-88
 2003498:	dcc01415 	stw	r19,80(sp)
 200349c:	dcc00404 	addi	r19,sp,16
 20034a0:	2011883a 	mov	r8,r4
 20034a4:	2813883a 	mov	r9,r5
 20034a8:	dc401315 	stw	r17,76(sp)
 20034ac:	d809883a 	mov	r4,sp
 20034b0:	980b883a 	mov	r5,r19
 20034b4:	dc400904 	addi	r17,sp,36
 20034b8:	dfc01515 	stw	ra,84(sp)
 20034bc:	da400115 	stw	r9,4(sp)
 20034c0:	d9c00315 	stw	r7,12(sp)
 20034c4:	da000015 	stw	r8,0(sp)
 20034c8:	d9800215 	stw	r6,8(sp)
 20034cc:	2003a280 	call	2003a28 <__unpack_d>
 20034d0:	d9000204 	addi	r4,sp,8
 20034d4:	880b883a 	mov	r5,r17
 20034d8:	2003a280 	call	2003a28 <__unpack_d>
 20034dc:	d9800e04 	addi	r6,sp,56
 20034e0:	9809883a 	mov	r4,r19
 20034e4:	880b883a 	mov	r5,r17
 20034e8:	20030040 	call	2003004 <_fpadd_parts>
 20034ec:	1009883a 	mov	r4,r2
 20034f0:	20037140 	call	2003714 <__pack_d>
 20034f4:	dfc01517 	ldw	ra,84(sp)
 20034f8:	dcc01417 	ldw	r19,80(sp)
 20034fc:	dc401317 	ldw	r17,76(sp)
 2003500:	dec01604 	addi	sp,sp,88
 2003504:	f800283a 	ret

02003508 <__ledf2>:
 2003508:	deffef04 	addi	sp,sp,-68
 200350c:	dc400f15 	stw	r17,60(sp)
 2003510:	dc400404 	addi	r17,sp,16
 2003514:	2005883a 	mov	r2,r4
 2003518:	2807883a 	mov	r3,r5
 200351c:	dc000e15 	stw	r16,56(sp)
 2003520:	d809883a 	mov	r4,sp
 2003524:	880b883a 	mov	r5,r17
 2003528:	dc000904 	addi	r16,sp,36
 200352c:	d8c00115 	stw	r3,4(sp)
 2003530:	d8800015 	stw	r2,0(sp)
 2003534:	d9800215 	stw	r6,8(sp)
 2003538:	dfc01015 	stw	ra,64(sp)
 200353c:	d9c00315 	stw	r7,12(sp)
 2003540:	2003a280 	call	2003a28 <__unpack_d>
 2003544:	d9000204 	addi	r4,sp,8
 2003548:	800b883a 	mov	r5,r16
 200354c:	2003a280 	call	2003a28 <__unpack_d>
 2003550:	d8800417 	ldw	r2,16(sp)
 2003554:	00c00044 	movi	r3,1
 2003558:	180d883a 	mov	r6,r3
 200355c:	1880062e 	bgeu	r3,r2,2003578 <__ledf2+0x70>
 2003560:	d8800917 	ldw	r2,36(sp)
 2003564:	8809883a 	mov	r4,r17
 2003568:	800b883a 	mov	r5,r16
 200356c:	1880022e 	bgeu	r3,r2,2003578 <__ledf2+0x70>
 2003570:	2003b600 	call	2003b60 <__fpcmp_parts_d>
 2003574:	100d883a 	mov	r6,r2
 2003578:	3005883a 	mov	r2,r6
 200357c:	dfc01017 	ldw	ra,64(sp)
 2003580:	dc400f17 	ldw	r17,60(sp)
 2003584:	dc000e17 	ldw	r16,56(sp)
 2003588:	dec01104 	addi	sp,sp,68
 200358c:	f800283a 	ret

02003590 <udivmodsi4>:
 2003590:	29001b2e 	bgeu	r5,r4,2003600 <udivmodsi4+0x70>
 2003594:	28001a16 	blt	r5,zero,2003600 <udivmodsi4+0x70>
 2003598:	00800044 	movi	r2,1
 200359c:	0007883a 	mov	r3,zero
 20035a0:	01c007c4 	movi	r7,31
 20035a4:	00000306 	br	20035b4 <udivmodsi4+0x24>
 20035a8:	19c01326 	beq	r3,r7,20035f8 <udivmodsi4+0x68>
 20035ac:	18c00044 	addi	r3,r3,1
 20035b0:	28000416 	blt	r5,zero,20035c4 <udivmodsi4+0x34>
 20035b4:	294b883a 	add	r5,r5,r5
 20035b8:	1085883a 	add	r2,r2,r2
 20035bc:	293ffa36 	bltu	r5,r4,20035a8 <udivmodsi4+0x18>
 20035c0:	10000d26 	beq	r2,zero,20035f8 <udivmodsi4+0x68>
 20035c4:	0007883a 	mov	r3,zero
 20035c8:	21400236 	bltu	r4,r5,20035d4 <udivmodsi4+0x44>
 20035cc:	2149c83a 	sub	r4,r4,r5
 20035d0:	1886b03a 	or	r3,r3,r2
 20035d4:	1004d07a 	srli	r2,r2,1
 20035d8:	280ad07a 	srli	r5,r5,1
 20035dc:	103ffa1e 	bne	r2,zero,20035c8 <udivmodsi4+0x38>
 20035e0:	30000226 	beq	r6,zero,20035ec <udivmodsi4+0x5c>
 20035e4:	2005883a 	mov	r2,r4
 20035e8:	f800283a 	ret
 20035ec:	1809883a 	mov	r4,r3
 20035f0:	2005883a 	mov	r2,r4
 20035f4:	f800283a 	ret
 20035f8:	0007883a 	mov	r3,zero
 20035fc:	003ff806 	br	20035e0 <udivmodsi4+0x50>
 2003600:	00800044 	movi	r2,1
 2003604:	0007883a 	mov	r3,zero
 2003608:	003fef06 	br	20035c8 <udivmodsi4+0x38>

0200360c <__divsi3>:
 200360c:	defffe04 	addi	sp,sp,-8
 2003610:	dc000015 	stw	r16,0(sp)
 2003614:	dfc00115 	stw	ra,4(sp)
 2003618:	0021883a 	mov	r16,zero
 200361c:	20000c16 	blt	r4,zero,2003650 <__divsi3+0x44>
 2003620:	000d883a 	mov	r6,zero
 2003624:	28000e16 	blt	r5,zero,2003660 <__divsi3+0x54>
 2003628:	20035900 	call	2003590 <udivmodsi4>
 200362c:	1007883a 	mov	r3,r2
 2003630:	8005003a 	cmpeq	r2,r16,zero
 2003634:	1000011e 	bne	r2,zero,200363c <__divsi3+0x30>
 2003638:	00c7c83a 	sub	r3,zero,r3
 200363c:	1805883a 	mov	r2,r3
 2003640:	dfc00117 	ldw	ra,4(sp)
 2003644:	dc000017 	ldw	r16,0(sp)
 2003648:	dec00204 	addi	sp,sp,8
 200364c:	f800283a 	ret
 2003650:	0109c83a 	sub	r4,zero,r4
 2003654:	04000044 	movi	r16,1
 2003658:	000d883a 	mov	r6,zero
 200365c:	283ff20e 	bge	r5,zero,2003628 <__divsi3+0x1c>
 2003660:	014bc83a 	sub	r5,zero,r5
 2003664:	8021003a 	cmpeq	r16,r16,zero
 2003668:	003fef06 	br	2003628 <__divsi3+0x1c>

0200366c <__modsi3>:
 200366c:	deffff04 	addi	sp,sp,-4
 2003670:	dfc00015 	stw	ra,0(sp)
 2003674:	01800044 	movi	r6,1
 2003678:	2807883a 	mov	r3,r5
 200367c:	20000416 	blt	r4,zero,2003690 <__modsi3+0x24>
 2003680:	28000c16 	blt	r5,zero,20036b4 <__modsi3+0x48>
 2003684:	dfc00017 	ldw	ra,0(sp)
 2003688:	dec00104 	addi	sp,sp,4
 200368c:	20035901 	jmpi	2003590 <udivmodsi4>
 2003690:	0109c83a 	sub	r4,zero,r4
 2003694:	28000b16 	blt	r5,zero,20036c4 <__modsi3+0x58>
 2003698:	180b883a 	mov	r5,r3
 200369c:	01800044 	movi	r6,1
 20036a0:	20035900 	call	2003590 <udivmodsi4>
 20036a4:	0085c83a 	sub	r2,zero,r2
 20036a8:	dfc00017 	ldw	ra,0(sp)
 20036ac:	dec00104 	addi	sp,sp,4
 20036b0:	f800283a 	ret
 20036b4:	014bc83a 	sub	r5,zero,r5
 20036b8:	dfc00017 	ldw	ra,0(sp)
 20036bc:	dec00104 	addi	sp,sp,4
 20036c0:	20035901 	jmpi	2003590 <udivmodsi4>
 20036c4:	0147c83a 	sub	r3,zero,r5
 20036c8:	003ff306 	br	2003698 <__modsi3+0x2c>

020036cc <__udivsi3>:
 20036cc:	000d883a 	mov	r6,zero
 20036d0:	20035901 	jmpi	2003590 <udivmodsi4>

020036d4 <__umodsi3>:
 20036d4:	01800044 	movi	r6,1
 20036d8:	20035901 	jmpi	2003590 <udivmodsi4>

020036dc <__mulsi3>:
 20036dc:	20000a26 	beq	r4,zero,2003708 <__mulsi3+0x2c>
 20036e0:	0007883a 	mov	r3,zero
 20036e4:	2080004c 	andi	r2,r4,1
 20036e8:	1005003a 	cmpeq	r2,r2,zero
 20036ec:	2008d07a 	srli	r4,r4,1
 20036f0:	1000011e 	bne	r2,zero,20036f8 <__mulsi3+0x1c>
 20036f4:	1947883a 	add	r3,r3,r5
 20036f8:	294b883a 	add	r5,r5,r5
 20036fc:	203ff91e 	bne	r4,zero,20036e4 <__mulsi3+0x8>
 2003700:	1805883a 	mov	r2,r3
 2003704:	f800283a 	ret
 2003708:	0007883a 	mov	r3,zero
 200370c:	1805883a 	mov	r2,r3
 2003710:	f800283a 	ret

02003714 <__pack_d>:
 2003714:	20c00017 	ldw	r3,0(r4)
 2003718:	defffd04 	addi	sp,sp,-12
 200371c:	dc000015 	stw	r16,0(sp)
 2003720:	dc800215 	stw	r18,8(sp)
 2003724:	dc400115 	stw	r17,4(sp)
 2003728:	00800044 	movi	r2,1
 200372c:	22000317 	ldw	r8,12(r4)
 2003730:	001f883a 	mov	r15,zero
 2003734:	22400417 	ldw	r9,16(r4)
 2003738:	24000117 	ldw	r16,4(r4)
 200373c:	10c0552e 	bgeu	r2,r3,2003894 <__pack_d+0x180>
 2003740:	00800104 	movi	r2,4
 2003744:	18804f26 	beq	r3,r2,2003884 <__pack_d+0x170>
 2003748:	00800084 	movi	r2,2
 200374c:	18800226 	beq	r3,r2,2003758 <__pack_d+0x44>
 2003750:	4244b03a 	or	r2,r8,r9
 2003754:	10001a1e 	bne	r2,zero,20037c0 <__pack_d+0xac>
 2003758:	000d883a 	mov	r6,zero
 200375c:	000f883a 	mov	r7,zero
 2003760:	0011883a 	mov	r8,zero
 2003764:	00800434 	movhi	r2,16
 2003768:	10bfffc4 	addi	r2,r2,-1
 200376c:	301d883a 	mov	r14,r6
 2003770:	3884703a 	and	r2,r7,r2
 2003774:	400a953a 	slli	r5,r8,20
 2003778:	79bffc2c 	andhi	r6,r15,65520
 200377c:	308cb03a 	or	r6,r6,r2
 2003780:	00e00434 	movhi	r3,32784
 2003784:	18ffffc4 	addi	r3,r3,-1
 2003788:	800497fa 	slli	r2,r16,31
 200378c:	30c6703a 	and	r3,r6,r3
 2003790:	1946b03a 	or	r3,r3,r5
 2003794:	01600034 	movhi	r5,32768
 2003798:	297fffc4 	addi	r5,r5,-1
 200379c:	194a703a 	and	r5,r3,r5
 20037a0:	288ab03a 	or	r5,r5,r2
 20037a4:	2807883a 	mov	r3,r5
 20037a8:	7005883a 	mov	r2,r14
 20037ac:	dc800217 	ldw	r18,8(sp)
 20037b0:	dc400117 	ldw	r17,4(sp)
 20037b4:	dc000017 	ldw	r16,0(sp)
 20037b8:	dec00304 	addi	sp,sp,12
 20037bc:	f800283a 	ret
 20037c0:	21000217 	ldw	r4,8(r4)
 20037c4:	00bf0084 	movi	r2,-1022
 20037c8:	20803f16 	blt	r4,r2,20038c8 <__pack_d+0x1b4>
 20037cc:	0080ffc4 	movi	r2,1023
 20037d0:	11002c16 	blt	r2,r4,2003884 <__pack_d+0x170>
 20037d4:	00803fc4 	movi	r2,255
 20037d8:	408c703a 	and	r6,r8,r2
 20037dc:	00802004 	movi	r2,128
 20037e0:	0007883a 	mov	r3,zero
 20037e4:	000f883a 	mov	r7,zero
 20037e8:	2280ffc4 	addi	r10,r4,1023
 20037ec:	30801e26 	beq	r6,r2,2003868 <__pack_d+0x154>
 20037f0:	00801fc4 	movi	r2,127
 20037f4:	4089883a 	add	r4,r8,r2
 20037f8:	220d803a 	cmpltu	r6,r4,r8
 20037fc:	324d883a 	add	r6,r6,r9
 2003800:	2011883a 	mov	r8,r4
 2003804:	3013883a 	mov	r9,r6
 2003808:	00880034 	movhi	r2,8192
 200380c:	10bfffc4 	addi	r2,r2,-1
 2003810:	12400d36 	bltu	r2,r9,2003848 <__pack_d+0x134>
 2003814:	4804963a 	slli	r2,r9,24
 2003818:	400cd23a 	srli	r6,r8,8
 200381c:	480ed23a 	srli	r7,r9,8
 2003820:	013fffc4 	movi	r4,-1
 2003824:	118cb03a 	or	r6,r2,r6
 2003828:	01400434 	movhi	r5,16
 200382c:	297fffc4 	addi	r5,r5,-1
 2003830:	3104703a 	and	r2,r6,r4
 2003834:	3946703a 	and	r3,r7,r5
 2003838:	5201ffcc 	andi	r8,r10,2047
 200383c:	100d883a 	mov	r6,r2
 2003840:	180f883a 	mov	r7,r3
 2003844:	003fc706 	br	2003764 <__pack_d+0x50>
 2003848:	480897fa 	slli	r4,r9,31
 200384c:	4004d07a 	srli	r2,r8,1
 2003850:	4806d07a 	srli	r3,r9,1
 2003854:	52800044 	addi	r10,r10,1
 2003858:	2084b03a 	or	r2,r4,r2
 200385c:	1011883a 	mov	r8,r2
 2003860:	1813883a 	mov	r9,r3
 2003864:	003feb06 	br	2003814 <__pack_d+0x100>
 2003868:	383fe11e 	bne	r7,zero,20037f0 <__pack_d+0xdc>
 200386c:	01004004 	movi	r4,256
 2003870:	4104703a 	and	r2,r8,r4
 2003874:	10c4b03a 	or	r2,r2,r3
 2003878:	103fe326 	beq	r2,zero,2003808 <__pack_d+0xf4>
 200387c:	3005883a 	mov	r2,r6
 2003880:	003fdc06 	br	20037f4 <__pack_d+0xe0>
 2003884:	000d883a 	mov	r6,zero
 2003888:	000f883a 	mov	r7,zero
 200388c:	0201ffc4 	movi	r8,2047
 2003890:	003fb406 	br	2003764 <__pack_d+0x50>
 2003894:	0005883a 	mov	r2,zero
 2003898:	00c00234 	movhi	r3,8
 200389c:	408cb03a 	or	r6,r8,r2
 20038a0:	48ceb03a 	or	r7,r9,r3
 20038a4:	013fffc4 	movi	r4,-1
 20038a8:	01400434 	movhi	r5,16
 20038ac:	297fffc4 	addi	r5,r5,-1
 20038b0:	3104703a 	and	r2,r6,r4
 20038b4:	3946703a 	and	r3,r7,r5
 20038b8:	100d883a 	mov	r6,r2
 20038bc:	180f883a 	mov	r7,r3
 20038c0:	0201ffc4 	movi	r8,2047
 20038c4:	003fa706 	br	2003764 <__pack_d+0x50>
 20038c8:	1109c83a 	sub	r4,r2,r4
 20038cc:	00800e04 	movi	r2,56
 20038d0:	11004316 	blt	r2,r4,20039e0 <__pack_d+0x2cc>
 20038d4:	21fff804 	addi	r7,r4,-32
 20038d8:	38004516 	blt	r7,zero,20039f0 <__pack_d+0x2dc>
 20038dc:	49d8d83a 	srl	r12,r9,r7
 20038e0:	001b883a 	mov	r13,zero
 20038e4:	0023883a 	mov	r17,zero
 20038e8:	01400044 	movi	r5,1
 20038ec:	0025883a 	mov	r18,zero
 20038f0:	38004716 	blt	r7,zero,2003a10 <__pack_d+0x2fc>
 20038f4:	29d6983a 	sll	r11,r5,r7
 20038f8:	0015883a 	mov	r10,zero
 20038fc:	00bfffc4 	movi	r2,-1
 2003900:	5089883a 	add	r4,r10,r2
 2003904:	588b883a 	add	r5,r11,r2
 2003908:	228d803a 	cmpltu	r6,r4,r10
 200390c:	314b883a 	add	r5,r6,r5
 2003910:	4104703a 	and	r2,r8,r4
 2003914:	4946703a 	and	r3,r9,r5
 2003918:	10c4b03a 	or	r2,r2,r3
 200391c:	10000226 	beq	r2,zero,2003928 <__pack_d+0x214>
 2003920:	04400044 	movi	r17,1
 2003924:	0025883a 	mov	r18,zero
 2003928:	00803fc4 	movi	r2,255
 200392c:	644eb03a 	or	r7,r12,r17
 2003930:	3892703a 	and	r9,r7,r2
 2003934:	00802004 	movi	r2,128
 2003938:	6c90b03a 	or	r8,r13,r18
 200393c:	0015883a 	mov	r10,zero
 2003940:	48801626 	beq	r9,r2,200399c <__pack_d+0x288>
 2003944:	01001fc4 	movi	r4,127
 2003948:	3905883a 	add	r2,r7,r4
 200394c:	11cd803a 	cmpltu	r6,r2,r7
 2003950:	320d883a 	add	r6,r6,r8
 2003954:	100f883a 	mov	r7,r2
 2003958:	00840034 	movhi	r2,4096
 200395c:	10bfffc4 	addi	r2,r2,-1
 2003960:	3011883a 	mov	r8,r6
 2003964:	0007883a 	mov	r3,zero
 2003968:	11801b36 	bltu	r2,r6,20039d8 <__pack_d+0x2c4>
 200396c:	4004963a 	slli	r2,r8,24
 2003970:	3808d23a 	srli	r4,r7,8
 2003974:	400ad23a 	srli	r5,r8,8
 2003978:	1813883a 	mov	r9,r3
 200397c:	1108b03a 	or	r4,r2,r4
 2003980:	00bfffc4 	movi	r2,-1
 2003984:	00c00434 	movhi	r3,16
 2003988:	18ffffc4 	addi	r3,r3,-1
 200398c:	208c703a 	and	r6,r4,r2
 2003990:	28ce703a 	and	r7,r5,r3
 2003994:	4a01ffcc 	andi	r8,r9,2047
 2003998:	003f7206 	br	2003764 <__pack_d+0x50>
 200399c:	503fe91e 	bne	r10,zero,2003944 <__pack_d+0x230>
 20039a0:	01004004 	movi	r4,256
 20039a4:	3904703a 	and	r2,r7,r4
 20039a8:	0007883a 	mov	r3,zero
 20039ac:	10c4b03a 	or	r2,r2,r3
 20039b0:	10000626 	beq	r2,zero,20039cc <__pack_d+0x2b8>
 20039b4:	3a45883a 	add	r2,r7,r9
 20039b8:	11cd803a 	cmpltu	r6,r2,r7
 20039bc:	320d883a 	add	r6,r6,r8
 20039c0:	100f883a 	mov	r7,r2
 20039c4:	3011883a 	mov	r8,r6
 20039c8:	0007883a 	mov	r3,zero
 20039cc:	00840034 	movhi	r2,4096
 20039d0:	10bfffc4 	addi	r2,r2,-1
 20039d4:	123fe52e 	bgeu	r2,r8,200396c <__pack_d+0x258>
 20039d8:	00c00044 	movi	r3,1
 20039dc:	003fe306 	br	200396c <__pack_d+0x258>
 20039e0:	0009883a 	mov	r4,zero
 20039e4:	0013883a 	mov	r9,zero
 20039e8:	000b883a 	mov	r5,zero
 20039ec:	003fe406 	br	2003980 <__pack_d+0x26c>
 20039f0:	4a47883a 	add	r3,r9,r9
 20039f4:	008007c4 	movi	r2,31
 20039f8:	1105c83a 	sub	r2,r2,r4
 20039fc:	1886983a 	sll	r3,r3,r2
 2003a00:	4118d83a 	srl	r12,r8,r4
 2003a04:	491ad83a 	srl	r13,r9,r4
 2003a08:	1b18b03a 	or	r12,r3,r12
 2003a0c:	003fb506 	br	20038e4 <__pack_d+0x1d0>
 2003a10:	2806d07a 	srli	r3,r5,1
 2003a14:	008007c4 	movi	r2,31
 2003a18:	1105c83a 	sub	r2,r2,r4
 2003a1c:	1896d83a 	srl	r11,r3,r2
 2003a20:	2914983a 	sll	r10,r5,r4
 2003a24:	003fb506 	br	20038fc <__pack_d+0x1e8>

02003a28 <__unpack_d>:
 2003a28:	20c00117 	ldw	r3,4(r4)
 2003a2c:	22400017 	ldw	r9,0(r4)
 2003a30:	00800434 	movhi	r2,16
 2003a34:	10bfffc4 	addi	r2,r2,-1
 2003a38:	1808d53a 	srli	r4,r3,20
 2003a3c:	180cd7fa 	srli	r6,r3,31
 2003a40:	1894703a 	and	r10,r3,r2
 2003a44:	2201ffcc 	andi	r8,r4,2047
 2003a48:	281b883a 	mov	r13,r5
 2003a4c:	4817883a 	mov	r11,r9
 2003a50:	29800115 	stw	r6,4(r5)
 2003a54:	5019883a 	mov	r12,r10
 2003a58:	40001e1e 	bne	r8,zero,2003ad4 <__unpack_d+0xac>
 2003a5c:	4a84b03a 	or	r2,r9,r10
 2003a60:	10001926 	beq	r2,zero,2003ac8 <__unpack_d+0xa0>
 2003a64:	4804d63a 	srli	r2,r9,24
 2003a68:	500c923a 	slli	r6,r10,8
 2003a6c:	013f0084 	movi	r4,-1022
 2003a70:	00c40034 	movhi	r3,4096
 2003a74:	18ffffc4 	addi	r3,r3,-1
 2003a78:	118cb03a 	or	r6,r2,r6
 2003a7c:	008000c4 	movi	r2,3
 2003a80:	480a923a 	slli	r5,r9,8
 2003a84:	68800015 	stw	r2,0(r13)
 2003a88:	69000215 	stw	r4,8(r13)
 2003a8c:	19800b36 	bltu	r3,r6,2003abc <__unpack_d+0x94>
 2003a90:	200f883a 	mov	r7,r4
 2003a94:	1811883a 	mov	r8,r3
 2003a98:	2945883a 	add	r2,r5,r5
 2003a9c:	1149803a 	cmpltu	r4,r2,r5
 2003aa0:	3187883a 	add	r3,r6,r6
 2003aa4:	20c9883a 	add	r4,r4,r3
 2003aa8:	100b883a 	mov	r5,r2
 2003aac:	200d883a 	mov	r6,r4
 2003ab0:	39ffffc4 	addi	r7,r7,-1
 2003ab4:	413ff82e 	bgeu	r8,r4,2003a98 <__unpack_d+0x70>
 2003ab8:	69c00215 	stw	r7,8(r13)
 2003abc:	69800415 	stw	r6,16(r13)
 2003ac0:	69400315 	stw	r5,12(r13)
 2003ac4:	f800283a 	ret
 2003ac8:	00800084 	movi	r2,2
 2003acc:	28800015 	stw	r2,0(r5)
 2003ad0:	f800283a 	ret
 2003ad4:	0081ffc4 	movi	r2,2047
 2003ad8:	40800f26 	beq	r8,r2,2003b18 <__unpack_d+0xf0>
 2003adc:	480cd63a 	srli	r6,r9,24
 2003ae0:	5006923a 	slli	r3,r10,8
 2003ae4:	4804923a 	slli	r2,r9,8
 2003ae8:	0009883a 	mov	r4,zero
 2003aec:	30c6b03a 	or	r3,r6,r3
 2003af0:	01440034 	movhi	r5,4096
 2003af4:	110cb03a 	or	r6,r2,r4
 2003af8:	423f0044 	addi	r8,r8,-1023
 2003afc:	194eb03a 	or	r7,r3,r5
 2003b00:	008000c4 	movi	r2,3
 2003b04:	69c00415 	stw	r7,16(r13)
 2003b08:	6a000215 	stw	r8,8(r13)
 2003b0c:	68800015 	stw	r2,0(r13)
 2003b10:	69800315 	stw	r6,12(r13)
 2003b14:	f800283a 	ret
 2003b18:	4a84b03a 	or	r2,r9,r10
 2003b1c:	1000031e 	bne	r2,zero,2003b2c <__unpack_d+0x104>
 2003b20:	00800104 	movi	r2,4
 2003b24:	28800015 	stw	r2,0(r5)
 2003b28:	f800283a 	ret
 2003b2c:	0009883a 	mov	r4,zero
 2003b30:	01400234 	movhi	r5,8
 2003b34:	4904703a 	and	r2,r9,r4
 2003b38:	5146703a 	and	r3,r10,r5
 2003b3c:	10c4b03a 	or	r2,r2,r3
 2003b40:	10000526 	beq	r2,zero,2003b58 <__unpack_d+0x130>
 2003b44:	00800044 	movi	r2,1
 2003b48:	68800015 	stw	r2,0(r13)
 2003b4c:	6b000415 	stw	r12,16(r13)
 2003b50:	6ac00315 	stw	r11,12(r13)
 2003b54:	f800283a 	ret
 2003b58:	68000015 	stw	zero,0(r13)
 2003b5c:	003ffb06 	br	2003b4c <__unpack_d+0x124>

02003b60 <__fpcmp_parts_d>:
 2003b60:	21800017 	ldw	r6,0(r4)
 2003b64:	00c00044 	movi	r3,1
 2003b68:	19800a2e 	bgeu	r3,r6,2003b94 <__fpcmp_parts_d+0x34>
 2003b6c:	28800017 	ldw	r2,0(r5)
 2003b70:	1880082e 	bgeu	r3,r2,2003b94 <__fpcmp_parts_d+0x34>
 2003b74:	00c00104 	movi	r3,4
 2003b78:	30c02626 	beq	r6,r3,2003c14 <__fpcmp_parts_d+0xb4>
 2003b7c:	10c02226 	beq	r2,r3,2003c08 <__fpcmp_parts_d+0xa8>
 2003b80:	00c00084 	movi	r3,2
 2003b84:	30c00526 	beq	r6,r3,2003b9c <__fpcmp_parts_d+0x3c>
 2003b88:	10c0071e 	bne	r2,r3,2003ba8 <__fpcmp_parts_d+0x48>
 2003b8c:	20800117 	ldw	r2,4(r4)
 2003b90:	1000091e 	bne	r2,zero,2003bb8 <__fpcmp_parts_d+0x58>
 2003b94:	00800044 	movi	r2,1
 2003b98:	f800283a 	ret
 2003b9c:	10c01a1e 	bne	r2,r3,2003c08 <__fpcmp_parts_d+0xa8>
 2003ba0:	0005883a 	mov	r2,zero
 2003ba4:	f800283a 	ret
 2003ba8:	22000117 	ldw	r8,4(r4)
 2003bac:	28800117 	ldw	r2,4(r5)
 2003bb0:	40800326 	beq	r8,r2,2003bc0 <__fpcmp_parts_d+0x60>
 2003bb4:	403ff726 	beq	r8,zero,2003b94 <__fpcmp_parts_d+0x34>
 2003bb8:	00bfffc4 	movi	r2,-1
 2003bbc:	f800283a 	ret
 2003bc0:	20c00217 	ldw	r3,8(r4)
 2003bc4:	28800217 	ldw	r2,8(r5)
 2003bc8:	10fffa16 	blt	r2,r3,2003bb4 <__fpcmp_parts_d+0x54>
 2003bcc:	18800916 	blt	r3,r2,2003bf4 <__fpcmp_parts_d+0x94>
 2003bd0:	21c00417 	ldw	r7,16(r4)
 2003bd4:	28c00417 	ldw	r3,16(r5)
 2003bd8:	21800317 	ldw	r6,12(r4)
 2003bdc:	28800317 	ldw	r2,12(r5)
 2003be0:	19fff436 	bltu	r3,r7,2003bb4 <__fpcmp_parts_d+0x54>
 2003be4:	38c00526 	beq	r7,r3,2003bfc <__fpcmp_parts_d+0x9c>
 2003be8:	38c00236 	bltu	r7,r3,2003bf4 <__fpcmp_parts_d+0x94>
 2003bec:	19ffec1e 	bne	r3,r7,2003ba0 <__fpcmp_parts_d+0x40>
 2003bf0:	30bfeb2e 	bgeu	r6,r2,2003ba0 <__fpcmp_parts_d+0x40>
 2003bf4:	403fe71e 	bne	r8,zero,2003b94 <__fpcmp_parts_d+0x34>
 2003bf8:	003fef06 	br	2003bb8 <__fpcmp_parts_d+0x58>
 2003bfc:	11bffa2e 	bgeu	r2,r6,2003be8 <__fpcmp_parts_d+0x88>
 2003c00:	403fe426 	beq	r8,zero,2003b94 <__fpcmp_parts_d+0x34>
 2003c04:	003fec06 	br	2003bb8 <__fpcmp_parts_d+0x58>
 2003c08:	28800117 	ldw	r2,4(r5)
 2003c0c:	103fe11e 	bne	r2,zero,2003b94 <__fpcmp_parts_d+0x34>
 2003c10:	003fe906 	br	2003bb8 <__fpcmp_parts_d+0x58>
 2003c14:	11bfdd1e 	bne	r2,r6,2003b8c <__fpcmp_parts_d+0x2c>
 2003c18:	28c00117 	ldw	r3,4(r5)
 2003c1c:	20800117 	ldw	r2,4(r4)
 2003c20:	1885c83a 	sub	r2,r3,r2
 2003c24:	f800283a 	ret

02003c28 <__assert_func>:
 2003c28:	008080b4 	movhi	r2,514
 2003c2c:	10b14104 	addi	r2,r2,-15100
 2003c30:	10c00017 	ldw	r3,0(r2)
 2003c34:	defffc04 	addi	sp,sp,-16
 2003c38:	2011883a 	mov	r8,r4
 2003c3c:	dfc00315 	stw	ra,12(sp)
 2003c40:	3005883a 	mov	r2,r6
 2003c44:	2813883a 	mov	r9,r5
 2003c48:	19000317 	ldw	r4,12(r3)
 2003c4c:	30000b26 	beq	r6,zero,2003c7c <__assert_func+0x54>
 2003c50:	00c080b4 	movhi	r3,514
 2003c54:	18e97604 	addi	r3,r3,-23080
 2003c58:	380d883a 	mov	r6,r7
 2003c5c:	014080b4 	movhi	r5,514
 2003c60:	29696a04 	addi	r5,r5,-23128
 2003c64:	400f883a 	mov	r7,r8
 2003c68:	da400015 	stw	r9,0(sp)
 2003c6c:	d8c00115 	stw	r3,4(sp)
 2003c70:	d8800215 	stw	r2,8(sp)
 2003c74:	2003ca00 	call	2003ca0 <fiprintf>
 2003c78:	20072680 	call	2007268 <abort>
 2003c7c:	008080b4 	movhi	r2,514
 2003c80:	10a97904 	addi	r2,r2,-23068
 2003c84:	1007883a 	mov	r3,r2
 2003c88:	003ff306 	br	2003c58 <__assert_func+0x30>

02003c8c <__assert>:
 2003c8c:	deffff04 	addi	sp,sp,-4
 2003c90:	300f883a 	mov	r7,r6
 2003c94:	000d883a 	mov	r6,zero
 2003c98:	dfc00015 	stw	ra,0(sp)
 2003c9c:	2003c280 	call	2003c28 <__assert_func>

02003ca0 <fiprintf>:
 2003ca0:	defffc04 	addi	sp,sp,-16
 2003ca4:	2007883a 	mov	r3,r4
 2003ca8:	dfc00115 	stw	ra,4(sp)
 2003cac:	d9800215 	stw	r6,8(sp)
 2003cb0:	d9c00315 	stw	r7,12(sp)
 2003cb4:	018080b4 	movhi	r6,514
 2003cb8:	31b14104 	addi	r6,r6,-15100
 2003cbc:	31000017 	ldw	r4,0(r6)
 2003cc0:	d8800204 	addi	r2,sp,8
 2003cc4:	280d883a 	mov	r6,r5
 2003cc8:	100f883a 	mov	r7,r2
 2003ccc:	180b883a 	mov	r5,r3
 2003cd0:	d8800015 	stw	r2,0(sp)
 2003cd4:	20051d00 	call	20051d0 <_vfiprintf_r>
 2003cd8:	dfc00117 	ldw	ra,4(sp)
 2003cdc:	dec00404 	addi	sp,sp,16
 2003ce0:	f800283a 	ret

02003ce4 <_fiprintf_r>:
 2003ce4:	defffd04 	addi	sp,sp,-12
 2003ce8:	dfc00115 	stw	ra,4(sp)
 2003cec:	d9c00215 	stw	r7,8(sp)
 2003cf0:	d8800204 	addi	r2,sp,8
 2003cf4:	100f883a 	mov	r7,r2
 2003cf8:	d8800015 	stw	r2,0(sp)
 2003cfc:	20051d00 	call	20051d0 <_vfiprintf_r>
 2003d00:	dfc00117 	ldw	ra,4(sp)
 2003d04:	dec00304 	addi	sp,sp,12
 2003d08:	f800283a 	ret

02003d0c <free>:
 2003d0c:	008080b4 	movhi	r2,514
 2003d10:	10b14104 	addi	r2,r2,-15100
 2003d14:	200b883a 	mov	r5,r4
 2003d18:	11000017 	ldw	r4,0(r2)
 2003d1c:	20090c81 	jmpi	20090c8 <_free_r>

02003d20 <malloc>:
 2003d20:	008080b4 	movhi	r2,514
 2003d24:	10b14104 	addi	r2,r2,-15100
 2003d28:	200b883a 	mov	r5,r4
 2003d2c:	11000017 	ldw	r4,0(r2)
 2003d30:	2003d341 	jmpi	2003d34 <_malloc_r>

02003d34 <_malloc_r>:
 2003d34:	defff604 	addi	sp,sp,-40
 2003d38:	28c002c4 	addi	r3,r5,11
 2003d3c:	00800584 	movi	r2,22
 2003d40:	dc800215 	stw	r18,8(sp)
 2003d44:	dfc00915 	stw	ra,36(sp)
 2003d48:	df000815 	stw	fp,32(sp)
 2003d4c:	ddc00715 	stw	r23,28(sp)
 2003d50:	dd800615 	stw	r22,24(sp)
 2003d54:	dd400515 	stw	r21,20(sp)
 2003d58:	dd000415 	stw	r20,16(sp)
 2003d5c:	dcc00315 	stw	r19,12(sp)
 2003d60:	dc400115 	stw	r17,4(sp)
 2003d64:	dc000015 	stw	r16,0(sp)
 2003d68:	2025883a 	mov	r18,r4
 2003d6c:	10c01236 	bltu	r2,r3,2003db8 <_malloc_r+0x84>
 2003d70:	04400404 	movi	r17,16
 2003d74:	8940142e 	bgeu	r17,r5,2003dc8 <_malloc_r+0x94>
 2003d78:	00800304 	movi	r2,12
 2003d7c:	0007883a 	mov	r3,zero
 2003d80:	90800015 	stw	r2,0(r18)
 2003d84:	1805883a 	mov	r2,r3
 2003d88:	dfc00917 	ldw	ra,36(sp)
 2003d8c:	df000817 	ldw	fp,32(sp)
 2003d90:	ddc00717 	ldw	r23,28(sp)
 2003d94:	dd800617 	ldw	r22,24(sp)
 2003d98:	dd400517 	ldw	r21,20(sp)
 2003d9c:	dd000417 	ldw	r20,16(sp)
 2003da0:	dcc00317 	ldw	r19,12(sp)
 2003da4:	dc800217 	ldw	r18,8(sp)
 2003da8:	dc400117 	ldw	r17,4(sp)
 2003dac:	dc000017 	ldw	r16,0(sp)
 2003db0:	dec00a04 	addi	sp,sp,40
 2003db4:	f800283a 	ret
 2003db8:	00bffe04 	movi	r2,-8
 2003dbc:	18a2703a 	and	r17,r3,r2
 2003dc0:	883fed16 	blt	r17,zero,2003d78 <_malloc_r+0x44>
 2003dc4:	897fec36 	bltu	r17,r5,2003d78 <_malloc_r+0x44>
 2003dc8:	9009883a 	mov	r4,r18
 2003dcc:	200f6640 	call	200f664 <__malloc_lock>
 2003dd0:	00807dc4 	movi	r2,503
 2003dd4:	14402b2e 	bgeu	r2,r17,2003e84 <_malloc_r+0x150>
 2003dd8:	8806d27a 	srli	r3,r17,9
 2003ddc:	18003f1e 	bne	r3,zero,2003edc <_malloc_r+0x1a8>
 2003de0:	880cd0fa 	srli	r6,r17,3
 2003de4:	300490fa 	slli	r2,r6,3
 2003de8:	02c080b4 	movhi	r11,514
 2003dec:	5aeba004 	addi	r11,r11,-20864
 2003df0:	12cb883a 	add	r5,r2,r11
 2003df4:	2c000317 	ldw	r16,12(r5)
 2003df8:	580f883a 	mov	r7,r11
 2003dfc:	2c00041e 	bne	r5,r16,2003e10 <_malloc_r+0xdc>
 2003e00:	00000a06 	br	2003e2c <_malloc_r+0xf8>
 2003e04:	1800860e 	bge	r3,zero,2004020 <_malloc_r+0x2ec>
 2003e08:	84000317 	ldw	r16,12(r16)
 2003e0c:	2c000726 	beq	r5,r16,2003e2c <_malloc_r+0xf8>
 2003e10:	80800117 	ldw	r2,4(r16)
 2003e14:	00ffff04 	movi	r3,-4
 2003e18:	10c8703a 	and	r4,r2,r3
 2003e1c:	2447c83a 	sub	r3,r4,r17
 2003e20:	008003c4 	movi	r2,15
 2003e24:	10fff70e 	bge	r2,r3,2003e04 <_malloc_r+0xd0>
 2003e28:	31bfffc4 	addi	r6,r6,-1
 2003e2c:	32400044 	addi	r9,r6,1
 2003e30:	028080b4 	movhi	r10,514
 2003e34:	52aba204 	addi	r10,r10,-20856
 2003e38:	54000217 	ldw	r16,8(r10)
 2003e3c:	8280a026 	beq	r16,r10,20040c0 <_malloc_r+0x38c>
 2003e40:	80800117 	ldw	r2,4(r16)
 2003e44:	00ffff04 	movi	r3,-4
 2003e48:	10ca703a 	and	r5,r2,r3
 2003e4c:	2c4dc83a 	sub	r6,r5,r17
 2003e50:	008003c4 	movi	r2,15
 2003e54:	11808316 	blt	r2,r6,2004064 <_malloc_r+0x330>
 2003e58:	52800315 	stw	r10,12(r10)
 2003e5c:	52800215 	stw	r10,8(r10)
 2003e60:	30002916 	blt	r6,zero,2003f08 <_malloc_r+0x1d4>
 2003e64:	8147883a 	add	r3,r16,r5
 2003e68:	18800117 	ldw	r2,4(r3)
 2003e6c:	9009883a 	mov	r4,r18
 2003e70:	10800054 	ori	r2,r2,1
 2003e74:	18800115 	stw	r2,4(r3)
 2003e78:	200f76c0 	call	200f76c <__malloc_unlock>
 2003e7c:	80c00204 	addi	r3,r16,8
 2003e80:	003fc006 	br	2003d84 <_malloc_r+0x50>
 2003e84:	02c080b4 	movhi	r11,514
 2003e88:	5aeba004 	addi	r11,r11,-20864
 2003e8c:	8ac5883a 	add	r2,r17,r11
 2003e90:	14000317 	ldw	r16,12(r2)
 2003e94:	580f883a 	mov	r7,r11
 2003e98:	8806d0fa 	srli	r3,r17,3
 2003e9c:	14006c26 	beq	r2,r16,2004050 <_malloc_r+0x31c>
 2003ea0:	80c00117 	ldw	r3,4(r16)
 2003ea4:	00bfff04 	movi	r2,-4
 2003ea8:	81800317 	ldw	r6,12(r16)
 2003eac:	1886703a 	and	r3,r3,r2
 2003eb0:	80c7883a 	add	r3,r16,r3
 2003eb4:	18800117 	ldw	r2,4(r3)
 2003eb8:	81400217 	ldw	r5,8(r16)
 2003ebc:	9009883a 	mov	r4,r18
 2003ec0:	10800054 	ori	r2,r2,1
 2003ec4:	18800115 	stw	r2,4(r3)
 2003ec8:	31400215 	stw	r5,8(r6)
 2003ecc:	29800315 	stw	r6,12(r5)
 2003ed0:	200f76c0 	call	200f76c <__malloc_unlock>
 2003ed4:	80c00204 	addi	r3,r16,8
 2003ed8:	003faa06 	br	2003d84 <_malloc_r+0x50>
 2003edc:	00800104 	movi	r2,4
 2003ee0:	10c0052e 	bgeu	r2,r3,2003ef8 <_malloc_r+0x1c4>
 2003ee4:	00800504 	movi	r2,20
 2003ee8:	10c07836 	bltu	r2,r3,20040cc <_malloc_r+0x398>
 2003eec:	198016c4 	addi	r6,r3,91
 2003ef0:	300490fa 	slli	r2,r6,3
 2003ef4:	003fbc06 	br	2003de8 <_malloc_r+0xb4>
 2003ef8:	8804d1ba 	srli	r2,r17,6
 2003efc:	11800e04 	addi	r6,r2,56
 2003f00:	300490fa 	slli	r2,r6,3
 2003f04:	003fb806 	br	2003de8 <_malloc_r+0xb4>
 2003f08:	00807fc4 	movi	r2,511
 2003f0c:	1140bb36 	bltu	r2,r5,20041fc <_malloc_r+0x4c8>
 2003f10:	2806d0fa 	srli	r3,r5,3
 2003f14:	573ffe04 	addi	fp,r10,-8
 2003f18:	00800044 	movi	r2,1
 2003f1c:	180890fa 	slli	r4,r3,3
 2003f20:	1807d0ba 	srai	r3,r3,2
 2003f24:	e1c00117 	ldw	r7,4(fp)
 2003f28:	5909883a 	add	r4,r11,r4
 2003f2c:	21400217 	ldw	r5,8(r4)
 2003f30:	10c4983a 	sll	r2,r2,r3
 2003f34:	81000315 	stw	r4,12(r16)
 2003f38:	81400215 	stw	r5,8(r16)
 2003f3c:	388eb03a 	or	r7,r7,r2
 2003f40:	2c000315 	stw	r16,12(r5)
 2003f44:	24000215 	stw	r16,8(r4)
 2003f48:	e1c00115 	stw	r7,4(fp)
 2003f4c:	4807883a 	mov	r3,r9
 2003f50:	4800cd16 	blt	r9,zero,2004288 <_malloc_r+0x554>
 2003f54:	1807d0ba 	srai	r3,r3,2
 2003f58:	00800044 	movi	r2,1
 2003f5c:	10c8983a 	sll	r4,r2,r3
 2003f60:	39004436 	bltu	r7,r4,2004074 <_malloc_r+0x340>
 2003f64:	21c4703a 	and	r2,r4,r7
 2003f68:	10000a1e 	bne	r2,zero,2003f94 <_malloc_r+0x260>
 2003f6c:	2109883a 	add	r4,r4,r4
 2003f70:	00bfff04 	movi	r2,-4
 2003f74:	4884703a 	and	r2,r9,r2
 2003f78:	3906703a 	and	r3,r7,r4
 2003f7c:	12400104 	addi	r9,r2,4
 2003f80:	1800041e 	bne	r3,zero,2003f94 <_malloc_r+0x260>
 2003f84:	2109883a 	add	r4,r4,r4
 2003f88:	3904703a 	and	r2,r7,r4
 2003f8c:	4a400104 	addi	r9,r9,4
 2003f90:	103ffc26 	beq	r2,zero,2003f84 <_malloc_r+0x250>
 2003f94:	480490fa 	slli	r2,r9,3
 2003f98:	4819883a 	mov	r12,r9
 2003f9c:	023fff04 	movi	r8,-4
 2003fa0:	589b883a 	add	r13,r11,r2
 2003fa4:	6807883a 	mov	r3,r13
 2003fa8:	014003c4 	movi	r5,15
 2003fac:	1c000317 	ldw	r16,12(r3)
 2003fb0:	1c00041e 	bne	r3,r16,2003fc4 <_malloc_r+0x290>
 2003fb4:	0000a706 	br	2004254 <_malloc_r+0x520>
 2003fb8:	3000ab0e 	bge	r6,zero,2004268 <_malloc_r+0x534>
 2003fbc:	84000317 	ldw	r16,12(r16)
 2003fc0:	1c00a426 	beq	r3,r16,2004254 <_malloc_r+0x520>
 2003fc4:	80800117 	ldw	r2,4(r16)
 2003fc8:	1204703a 	and	r2,r2,r8
 2003fcc:	144dc83a 	sub	r6,r2,r17
 2003fd0:	29bff90e 	bge	r5,r6,2003fb8 <_malloc_r+0x284>
 2003fd4:	81000317 	ldw	r4,12(r16)
 2003fd8:	80c00217 	ldw	r3,8(r16)
 2003fdc:	89400054 	ori	r5,r17,1
 2003fe0:	8445883a 	add	r2,r16,r17
 2003fe4:	20c00215 	stw	r3,8(r4)
 2003fe8:	19000315 	stw	r4,12(r3)
 2003fec:	81400115 	stw	r5,4(r16)
 2003ff0:	1187883a 	add	r3,r2,r6
 2003ff4:	31000054 	ori	r4,r6,1
 2003ff8:	50800315 	stw	r2,12(r10)
 2003ffc:	50800215 	stw	r2,8(r10)
 2004000:	19800015 	stw	r6,0(r3)
 2004004:	11000115 	stw	r4,4(r2)
 2004008:	12800215 	stw	r10,8(r2)
 200400c:	12800315 	stw	r10,12(r2)
 2004010:	9009883a 	mov	r4,r18
 2004014:	200f76c0 	call	200f76c <__malloc_unlock>
 2004018:	80c00204 	addi	r3,r16,8
 200401c:	003f5906 	br	2003d84 <_malloc_r+0x50>
 2004020:	8109883a 	add	r4,r16,r4
 2004024:	20800117 	ldw	r2,4(r4)
 2004028:	80c00217 	ldw	r3,8(r16)
 200402c:	81400317 	ldw	r5,12(r16)
 2004030:	10800054 	ori	r2,r2,1
 2004034:	20800115 	stw	r2,4(r4)
 2004038:	28c00215 	stw	r3,8(r5)
 200403c:	19400315 	stw	r5,12(r3)
 2004040:	9009883a 	mov	r4,r18
 2004044:	200f76c0 	call	200f76c <__malloc_unlock>
 2004048:	80c00204 	addi	r3,r16,8
 200404c:	003f4d06 	br	2003d84 <_malloc_r+0x50>
 2004050:	80800204 	addi	r2,r16,8
 2004054:	14000317 	ldw	r16,12(r2)
 2004058:	143f911e 	bne	r2,r16,2003ea0 <_malloc_r+0x16c>
 200405c:	1a400084 	addi	r9,r3,2
 2004060:	003f7306 	br	2003e30 <_malloc_r+0xfc>
 2004064:	88c00054 	ori	r3,r17,1
 2004068:	8445883a 	add	r2,r16,r17
 200406c:	80c00115 	stw	r3,4(r16)
 2004070:	003fdf06 	br	2003ff0 <_malloc_r+0x2bc>
 2004074:	e4000217 	ldw	r16,8(fp)
 2004078:	00bfff04 	movi	r2,-4
 200407c:	80c00117 	ldw	r3,4(r16)
 2004080:	802d883a 	mov	r22,r16
 2004084:	18aa703a 	and	r21,r3,r2
 2004088:	ac401636 	bltu	r21,r17,20040e4 <_malloc_r+0x3b0>
 200408c:	ac49c83a 	sub	r4,r21,r17
 2004090:	008003c4 	movi	r2,15
 2004094:	1100130e 	bge	r2,r4,20040e4 <_malloc_r+0x3b0>
 2004098:	88800054 	ori	r2,r17,1
 200409c:	8447883a 	add	r3,r16,r17
 20040a0:	80800115 	stw	r2,4(r16)
 20040a4:	20800054 	ori	r2,r4,1
 20040a8:	18800115 	stw	r2,4(r3)
 20040ac:	e0c00215 	stw	r3,8(fp)
 20040b0:	9009883a 	mov	r4,r18
 20040b4:	200f76c0 	call	200f76c <__malloc_unlock>
 20040b8:	80c00204 	addi	r3,r16,8
 20040bc:	003f3106 	br	2003d84 <_malloc_r+0x50>
 20040c0:	39c00117 	ldw	r7,4(r7)
 20040c4:	573ffe04 	addi	fp,r10,-8
 20040c8:	003fa006 	br	2003f4c <_malloc_r+0x218>
 20040cc:	00801504 	movi	r2,84
 20040d0:	10c06736 	bltu	r2,r3,2004270 <_malloc_r+0x53c>
 20040d4:	8804d33a 	srli	r2,r17,12
 20040d8:	11801b84 	addi	r6,r2,110
 20040dc:	300490fa 	slli	r2,r6,3
 20040e0:	003f4106 	br	2003de8 <_malloc_r+0xb4>
 20040e4:	d0a71717 	ldw	r2,-25508(gp)
 20040e8:	d0e00417 	ldw	r3,-32752(gp)
 20040ec:	053fffc4 	movi	r20,-1
 20040f0:	10800404 	addi	r2,r2,16
 20040f4:	88a7883a 	add	r19,r17,r2
 20040f8:	1d000326 	beq	r3,r20,2004108 <_malloc_r+0x3d4>
 20040fc:	98c3ffc4 	addi	r3,r19,4095
 2004100:	00bc0004 	movi	r2,-4096
 2004104:	18a6703a 	and	r19,r3,r2
 2004108:	9009883a 	mov	r4,r18
 200410c:	980b883a 	mov	r5,r19
 2004110:	2004dc80 	call	2004dc8 <_sbrk_r>
 2004114:	1009883a 	mov	r4,r2
 2004118:	15000426 	beq	r2,r20,200412c <_malloc_r+0x3f8>
 200411c:	854b883a 	add	r5,r16,r21
 2004120:	1029883a 	mov	r20,r2
 2004124:	11405a2e 	bgeu	r2,r5,2004290 <_malloc_r+0x55c>
 2004128:	87000c26 	beq	r16,fp,200415c <_malloc_r+0x428>
 200412c:	e4000217 	ldw	r16,8(fp)
 2004130:	80c00117 	ldw	r3,4(r16)
 2004134:	00bfff04 	movi	r2,-4
 2004138:	1884703a 	and	r2,r3,r2
 200413c:	14400336 	bltu	r2,r17,200414c <_malloc_r+0x418>
 2004140:	1449c83a 	sub	r4,r2,r17
 2004144:	008003c4 	movi	r2,15
 2004148:	113fd316 	blt	r2,r4,2004098 <_malloc_r+0x364>
 200414c:	9009883a 	mov	r4,r18
 2004150:	200f76c0 	call	200f76c <__malloc_unlock>
 2004154:	0007883a 	mov	r3,zero
 2004158:	003f0a06 	br	2003d84 <_malloc_r+0x50>
 200415c:	05c080b4 	movhi	r23,514
 2004160:	bdf87f04 	addi	r23,r23,-7684
 2004164:	b8800017 	ldw	r2,0(r23)
 2004168:	988d883a 	add	r6,r19,r2
 200416c:	b9800015 	stw	r6,0(r23)
 2004170:	d0e00417 	ldw	r3,-32752(gp)
 2004174:	00bfffc4 	movi	r2,-1
 2004178:	18808e26 	beq	r3,r2,20043b4 <_malloc_r+0x680>
 200417c:	2145c83a 	sub	r2,r4,r5
 2004180:	3085883a 	add	r2,r6,r2
 2004184:	b8800015 	stw	r2,0(r23)
 2004188:	20c001cc 	andi	r3,r4,7
 200418c:	18005f1e 	bne	r3,zero,200430c <_malloc_r+0x5d8>
 2004190:	000b883a 	mov	r5,zero
 2004194:	a4c5883a 	add	r2,r20,r19
 2004198:	1083ffcc 	andi	r2,r2,4095
 200419c:	00c40004 	movi	r3,4096
 20041a0:	1887c83a 	sub	r3,r3,r2
 20041a4:	28e7883a 	add	r19,r5,r3
 20041a8:	9009883a 	mov	r4,r18
 20041ac:	980b883a 	mov	r5,r19
 20041b0:	2004dc80 	call	2004dc8 <_sbrk_r>
 20041b4:	1007883a 	mov	r3,r2
 20041b8:	00bfffc4 	movi	r2,-1
 20041bc:	18807a26 	beq	r3,r2,20043a8 <_malloc_r+0x674>
 20041c0:	1d05c83a 	sub	r2,r3,r20
 20041c4:	9885883a 	add	r2,r19,r2
 20041c8:	10c00054 	ori	r3,r2,1
 20041cc:	b8800017 	ldw	r2,0(r23)
 20041d0:	a021883a 	mov	r16,r20
 20041d4:	a0c00115 	stw	r3,4(r20)
 20041d8:	9885883a 	add	r2,r19,r2
 20041dc:	b8800015 	stw	r2,0(r23)
 20041e0:	e5000215 	stw	r20,8(fp)
 20041e4:	b7003626 	beq	r22,fp,20042c0 <_malloc_r+0x58c>
 20041e8:	018003c4 	movi	r6,15
 20041ec:	35404b36 	bltu	r6,r21,200431c <_malloc_r+0x5e8>
 20041f0:	00800044 	movi	r2,1
 20041f4:	a0800115 	stw	r2,4(r20)
 20041f8:	003fcd06 	br	2004130 <_malloc_r+0x3fc>
 20041fc:	2808d27a 	srli	r4,r5,9
 2004200:	2000371e 	bne	r4,zero,20042e0 <_malloc_r+0x5ac>
 2004204:	2808d0fa 	srli	r4,r5,3
 2004208:	200690fa 	slli	r3,r4,3
 200420c:	1ad1883a 	add	r8,r3,r11
 2004210:	41800217 	ldw	r6,8(r8)
 2004214:	41805b26 	beq	r8,r6,2004384 <_malloc_r+0x650>
 2004218:	30800117 	ldw	r2,4(r6)
 200421c:	00ffff04 	movi	r3,-4
 2004220:	10c4703a 	and	r2,r2,r3
 2004224:	2880022e 	bgeu	r5,r2,2004230 <_malloc_r+0x4fc>
 2004228:	31800217 	ldw	r6,8(r6)
 200422c:	41bffa1e 	bne	r8,r6,2004218 <_malloc_r+0x4e4>
 2004230:	32000317 	ldw	r8,12(r6)
 2004234:	39c00117 	ldw	r7,4(r7)
 2004238:	82000315 	stw	r8,12(r16)
 200423c:	81800215 	stw	r6,8(r16)
 2004240:	070080b4 	movhi	fp,514
 2004244:	e72ba004 	addi	fp,fp,-20864
 2004248:	34000315 	stw	r16,12(r6)
 200424c:	44000215 	stw	r16,8(r8)
 2004250:	003f3e06 	br	2003f4c <_malloc_r+0x218>
 2004254:	63000044 	addi	r12,r12,1
 2004258:	608000cc 	andi	r2,r12,3
 200425c:	10005d26 	beq	r2,zero,20043d4 <_malloc_r+0x6a0>
 2004260:	18c00204 	addi	r3,r3,8
 2004264:	003f5106 	br	2003fac <_malloc_r+0x278>
 2004268:	8089883a 	add	r4,r16,r2
 200426c:	003f6d06 	br	2004024 <_malloc_r+0x2f0>
 2004270:	00805504 	movi	r2,340
 2004274:	10c02036 	bltu	r2,r3,20042f8 <_malloc_r+0x5c4>
 2004278:	8804d3fa 	srli	r2,r17,15
 200427c:	11801dc4 	addi	r6,r2,119
 2004280:	300490fa 	slli	r2,r6,3
 2004284:	003ed806 	br	2003de8 <_malloc_r+0xb4>
 2004288:	48c000c4 	addi	r3,r9,3
 200428c:	003f3106 	br	2003f54 <_malloc_r+0x220>
 2004290:	05c080b4 	movhi	r23,514
 2004294:	bdf87f04 	addi	r23,r23,-7684
 2004298:	b8800017 	ldw	r2,0(r23)
 200429c:	988d883a 	add	r6,r19,r2
 20042a0:	b9800015 	stw	r6,0(r23)
 20042a4:	293fb21e 	bne	r5,r4,2004170 <_malloc_r+0x43c>
 20042a8:	2083ffcc 	andi	r2,r4,4095
 20042ac:	103fb01e 	bne	r2,zero,2004170 <_malloc_r+0x43c>
 20042b0:	e4000217 	ldw	r16,8(fp)
 20042b4:	9d45883a 	add	r2,r19,r21
 20042b8:	10800054 	ori	r2,r2,1
 20042bc:	80800115 	stw	r2,4(r16)
 20042c0:	b8c00017 	ldw	r3,0(r23)
 20042c4:	d0a71817 	ldw	r2,-25504(gp)
 20042c8:	10c0012e 	bgeu	r2,r3,20042d0 <_malloc_r+0x59c>
 20042cc:	d0e71815 	stw	r3,-25504(gp)
 20042d0:	d0a71917 	ldw	r2,-25500(gp)
 20042d4:	10ff962e 	bgeu	r2,r3,2004130 <_malloc_r+0x3fc>
 20042d8:	d0e71915 	stw	r3,-25500(gp)
 20042dc:	003f9406 	br	2004130 <_malloc_r+0x3fc>
 20042e0:	00800104 	movi	r2,4
 20042e4:	11001e36 	bltu	r2,r4,2004360 <_malloc_r+0x62c>
 20042e8:	2804d1ba 	srli	r2,r5,6
 20042ec:	11000e04 	addi	r4,r2,56
 20042f0:	200690fa 	slli	r3,r4,3
 20042f4:	003fc506 	br	200420c <_malloc_r+0x4d8>
 20042f8:	00815504 	movi	r2,1364
 20042fc:	10c01d2e 	bgeu	r2,r3,2004374 <_malloc_r+0x640>
 2004300:	01801f84 	movi	r6,126
 2004304:	0080fc04 	movi	r2,1008
 2004308:	003eb706 	br	2003de8 <_malloc_r+0xb4>
 200430c:	00800204 	movi	r2,8
 2004310:	10cbc83a 	sub	r5,r2,r3
 2004314:	2169883a 	add	r20,r4,r5
 2004318:	003f9e06 	br	2004194 <_malloc_r+0x460>
 200431c:	00bffe04 	movi	r2,-8
 2004320:	a93ffd04 	addi	r4,r21,-12
 2004324:	2088703a 	and	r4,r4,r2
 2004328:	b10b883a 	add	r5,r22,r4
 200432c:	00c00144 	movi	r3,5
 2004330:	28c00215 	stw	r3,8(r5)
 2004334:	28c00115 	stw	r3,4(r5)
 2004338:	b0800117 	ldw	r2,4(r22)
 200433c:	1080004c 	andi	r2,r2,1
 2004340:	2084b03a 	or	r2,r4,r2
 2004344:	b0800115 	stw	r2,4(r22)
 2004348:	313fdd2e 	bgeu	r6,r4,20042c0 <_malloc_r+0x58c>
 200434c:	b1400204 	addi	r5,r22,8
 2004350:	9009883a 	mov	r4,r18
 2004354:	20090c80 	call	20090c8 <_free_r>
 2004358:	e4000217 	ldw	r16,8(fp)
 200435c:	003fd806 	br	20042c0 <_malloc_r+0x58c>
 2004360:	00800504 	movi	r2,20
 2004364:	11001536 	bltu	r2,r4,20043bc <_malloc_r+0x688>
 2004368:	210016c4 	addi	r4,r4,91
 200436c:	200690fa 	slli	r3,r4,3
 2004370:	003fa606 	br	200420c <_malloc_r+0x4d8>
 2004374:	8804d4ba 	srli	r2,r17,18
 2004378:	11801f04 	addi	r6,r2,124
 200437c:	300490fa 	slli	r2,r6,3
 2004380:	003e9906 	br	2003de8 <_malloc_r+0xb4>
 2004384:	2009d0ba 	srai	r4,r4,2
 2004388:	014080b4 	movhi	r5,514
 200438c:	296ba004 	addi	r5,r5,-20864
 2004390:	00c00044 	movi	r3,1
 2004394:	28800117 	ldw	r2,4(r5)
 2004398:	1906983a 	sll	r3,r3,r4
 200439c:	10c4b03a 	or	r2,r2,r3
 20043a0:	28800115 	stw	r2,4(r5)
 20043a4:	003fa306 	br	2004234 <_malloc_r+0x500>
 20043a8:	0027883a 	mov	r19,zero
 20043ac:	00c00044 	movi	r3,1
 20043b0:	003f8606 	br	20041cc <_malloc_r+0x498>
 20043b4:	d1200415 	stw	r4,-32752(gp)
 20043b8:	003f7306 	br	2004188 <_malloc_r+0x454>
 20043bc:	00801504 	movi	r2,84
 20043c0:	11001936 	bltu	r2,r4,2004428 <_malloc_r+0x6f4>
 20043c4:	2804d33a 	srli	r2,r5,12
 20043c8:	11001b84 	addi	r4,r2,110
 20043cc:	200690fa 	slli	r3,r4,3
 20043d0:	003f8e06 	br	200420c <_malloc_r+0x4d8>
 20043d4:	480b883a 	mov	r5,r9
 20043d8:	6807883a 	mov	r3,r13
 20043dc:	288000cc 	andi	r2,r5,3
 20043e0:	18fffe04 	addi	r3,r3,-8
 20043e4:	297fffc4 	addi	r5,r5,-1
 20043e8:	10001526 	beq	r2,zero,2004440 <_malloc_r+0x70c>
 20043ec:	18800217 	ldw	r2,8(r3)
 20043f0:	10fffa26 	beq	r2,r3,20043dc <_malloc_r+0x6a8>
 20043f4:	2109883a 	add	r4,r4,r4
 20043f8:	393f1e36 	bltu	r7,r4,2004074 <_malloc_r+0x340>
 20043fc:	203f1d26 	beq	r4,zero,2004074 <_malloc_r+0x340>
 2004400:	21c4703a 	and	r2,r4,r7
 2004404:	10000226 	beq	r2,zero,2004410 <_malloc_r+0x6dc>
 2004408:	6013883a 	mov	r9,r12
 200440c:	003ee106 	br	2003f94 <_malloc_r+0x260>
 2004410:	2109883a 	add	r4,r4,r4
 2004414:	3904703a 	and	r2,r7,r4
 2004418:	63000104 	addi	r12,r12,4
 200441c:	103ffc26 	beq	r2,zero,2004410 <_malloc_r+0x6dc>
 2004420:	6013883a 	mov	r9,r12
 2004424:	003edb06 	br	2003f94 <_malloc_r+0x260>
 2004428:	00805504 	movi	r2,340
 200442c:	11000836 	bltu	r2,r4,2004450 <_malloc_r+0x71c>
 2004430:	2804d3fa 	srli	r2,r5,15
 2004434:	11001dc4 	addi	r4,r2,119
 2004438:	200690fa 	slli	r3,r4,3
 200443c:	003f7306 	br	200420c <_malloc_r+0x4d8>
 2004440:	0104303a 	nor	r2,zero,r4
 2004444:	388e703a 	and	r7,r7,r2
 2004448:	e1c00115 	stw	r7,4(fp)
 200444c:	003fe906 	br	20043f4 <_malloc_r+0x6c0>
 2004450:	00815504 	movi	r2,1364
 2004454:	1100032e 	bgeu	r2,r4,2004464 <_malloc_r+0x730>
 2004458:	01001f84 	movi	r4,126
 200445c:	00c0fc04 	movi	r3,1008
 2004460:	003f6a06 	br	200420c <_malloc_r+0x4d8>
 2004464:	2804d4ba 	srli	r2,r5,18
 2004468:	11001f04 	addi	r4,r2,124
 200446c:	200690fa 	slli	r3,r4,3
 2004470:	003f6606 	br	200420c <_malloc_r+0x4d8>

02004474 <memcpy>:
 2004474:	01c003c4 	movi	r7,15
 2004478:	2007883a 	mov	r3,r4
 200447c:	3980032e 	bgeu	r7,r6,200448c <memcpy+0x18>
 2004480:	2904b03a 	or	r2,r5,r4
 2004484:	108000cc 	andi	r2,r2,3
 2004488:	10000926 	beq	r2,zero,20044b0 <memcpy+0x3c>
 200448c:	30000626 	beq	r6,zero,20044a8 <memcpy+0x34>
 2004490:	30cd883a 	add	r6,r6,r3
 2004494:	28800003 	ldbu	r2,0(r5)
